---
triple:          'arm64-apple-darwin'
binary-path:     main
relocations:
  - { offsetInCU: 0x26, offset: 0x26, size: 0x8, addend: 0x0, symName: __ZN10CleanTableC2EP6Waiter, symObjAddr: 0x0, symBinAddr: 0x100003850, symSize: 0x50 }
  - { offsetInCU: 0x68C7, offset: 0x68C7, size: 0x8, addend: 0x0, symName: __ZN10CleanTableC2EP6Waiter, symObjAddr: 0x0, symBinAddr: 0x100003850, symSize: 0x50 }
  - { offsetInCU: 0x68FF, offset: 0x68FF, size: 0x8, addend: 0x0, symName: __ZN7CommandC2Ev, symObjAddr: 0x50, symBinAddr: 0x1000038A0, symSize: 0x24 }
  - { offsetInCU: 0x6929, offset: 0x6929, size: 0x8, addend: 0x0, symName: __ZN10CleanTableC1EP6Waiter, symObjAddr: 0x74, symBinAddr: 0x1000038C4, symSize: 0x34 }
  - { offsetInCU: 0x6961, offset: 0x6961, size: 0x8, addend: 0x0, symName: __ZN10CleanTable7executeEP15RestaurantTableP8MenuItem, symObjAddr: 0xA8, symBinAddr: 0x1000038F8, symSize: 0x34 }
  - { offsetInCU: 0x26, offset: 0x69CE, size: 0x8, addend: 0x0, symName: __ZN9ColleagueC2EP8Mediator, symObjAddr: 0x0, symBinAddr: 0x10000392C, symSize: 0x54 }
  - { offsetInCU: 0x3880, offset: 0xA228, size: 0x8, addend: 0x0, symName: __ZN9ColleagueC2EP8Mediator, symObjAddr: 0x0, symBinAddr: 0x10000392C, symSize: 0x54 }
  - { offsetInCU: 0x38B8, offset: 0xA260, size: 0x8, addend: 0x0, symName: __ZN9ColleagueC1EP8Mediator, symObjAddr: 0x54, symBinAddr: 0x100003980, symSize: 0x34 }
  - { offsetInCU: 0x38F0, offset: 0xA298, size: 0x8, addend: 0x0, symName: __ZN9Colleague7changedEv, symObjAddr: 0x88, symBinAddr: 0x1000039B4, symSize: 0x28 }
  - { offsetInCU: 0x3916, offset: 0xA2BE, size: 0x8, addend: 0x0, symName: __ZN9Colleague8setOrderEP5Order, symObjAddr: 0xB0, symBinAddr: 0x1000039DC, symSize: 0x20 }
  - { offsetInCU: 0x394A, offset: 0xA2F2, size: 0x8, addend: 0x0, symName: __ZN9Colleague8getOrderEv, symObjAddr: 0xD0, symBinAddr: 0x1000039FC, symSize: 0x18 }
  - { offsetInCU: 0x1692, offset: 0xB9A9, size: 0x8, addend: 0x0, symName: __ZNSt3__119__debug_db_insert_cB7v160006INS_6vectorIP9ColleagueNS_9allocatorIS3_EEEEEEvPT_, symObjAddr: 0x188, symBinAddr: 0x100003B9C, symSize: 0x10 }
  - { offsetInCU: 0x35D5, offset: 0xD8EC, size: 0x8, addend: 0x0, symName: __ZN16ConcreteMediatorC2Ev, symObjAddr: 0x0, symBinAddr: 0x100003A14, symSize: 0x50 }
  - { offsetInCU: 0x35FF, offset: 0xD916, size: 0x8, addend: 0x0, symName: __ZN8MediatorC2Ev, symObjAddr: 0x50, symBinAddr: 0x100003A64, symSize: 0x40 }
  - { offsetInCU: 0x3629, offset: 0xD940, size: 0x8, addend: 0x0, symName: __ZN16ConcreteMediatorC1Ev, symObjAddr: 0x90, symBinAddr: 0x100003AA4, symSize: 0x2C }
  - { offsetInCU: 0x3653, offset: 0xD96A, size: 0x8, addend: 0x0, symName: __ZNSt3__16vectorIP9ColleagueNS_9allocatorIS2_EEEC1B7v160006Ev, symObjAddr: 0xBC, symBinAddr: 0x100003AD0, symSize: 0x2C }
  - { offsetInCU: 0x367B, offset: 0xD992, size: 0x8, addend: 0x0, symName: __ZNSt3__16vectorIP9ColleagueNS_9allocatorIS2_EEEC2B7v160006Ev, symObjAddr: 0xE8, symBinAddr: 0x100003AFC, symSize: 0x58 }
  - { offsetInCU: 0x36AD, offset: 0xD9C4, size: 0x8, addend: 0x0, symName: __ZNSt3__117__compressed_pairIPP9ColleagueNS_9allocatorIS2_EEEC1B7v160006IDnNS_18__default_init_tagEEEOT_OT0_, symObjAddr: 0x140, symBinAddr: 0x100003B54, symSize: 0x3C }
  - { offsetInCU: 0x3703, offset: 0xDA1A, size: 0x8, addend: 0x0, symName: __ZNSt3__117__compressed_pairIPP9ColleagueNS_9allocatorIS2_EEEC2B7v160006IDnNS_18__default_init_tagEEEOT_OT0_, symObjAddr: 0x198, symBinAddr: 0x100003BAC, symSize: 0x40 }
  - { offsetInCU: 0x3759, offset: 0xDA70, size: 0x8, addend: 0x0, symName: __ZNSt3__122__compressed_pair_elemIPP9ColleagueLi0ELb0EEC2B7v160006IDnvEEOT_, symObjAddr: 0x1D8, symBinAddr: 0x100003BEC, symSize: 0x1C }
  - { offsetInCU: 0x3799, offset: 0xDAB0, size: 0x8, addend: 0x0, symName: __ZNSt3__122__compressed_pair_elemINS_9allocatorIP9ColleagueEELi1ELb1EEC2B7v160006ENS_18__default_init_tagE, symObjAddr: 0x1F4, symBinAddr: 0x100003C08, symSize: 0x2C }
  - { offsetInCU: 0x37CB, offset: 0xDAE2, size: 0x8, addend: 0x0, symName: __ZNSt3__19allocatorIP9ColleagueEC2B7v160006Ev, symObjAddr: 0x220, symBinAddr: 0x100003C34, symSize: 0x2C }
  - { offsetInCU: 0x37F3, offset: 0xDB0A, size: 0x8, addend: 0x0, symName: __ZNSt3__116__non_trivial_ifILb1ENS_9allocatorIP9ColleagueEEEC2B7v160006Ev, symObjAddr: 0x24C, symBinAddr: 0x100003C60, symSize: 0x14 }
  - { offsetInCU: 0x26, offset: 0xDB71, size: 0x8, addend: 0x0, symName: __ZN12ConfirmOrderC2EP6Waiter, symObjAddr: 0x0, symBinAddr: 0x100003C74, symSize: 0x50 }
  - { offsetInCU: 0x5903, offset: 0x1344E, size: 0x8, addend: 0x0, symName: __ZN12ConfirmOrderC2EP6Waiter, symObjAddr: 0x0, symBinAddr: 0x100003C74, symSize: 0x50 }
  - { offsetInCU: 0x593B, offset: 0x13486, size: 0x8, addend: 0x0, symName: __ZN12ConfirmOrderC1EP6Waiter, symObjAddr: 0x74, symBinAddr: 0x100003CC4, symSize: 0x34 }
  - { offsetInCU: 0x5973, offset: 0x134BE, size: 0x8, addend: 0x0, symName: __ZN12ConfirmOrder7executeEP15RestaurantTableP8MenuItem, symObjAddr: 0xA8, symBinAddr: 0x100003CF8, symSize: 0x34 }
  - { offsetInCU: 0x797D, offset: 0x1AE82, size: 0x8, addend: 0x0, symName: __ZNSt3__124__put_character_sequenceB7v160006IcNS_11char_traitsIcEEEERNS_13basic_ostreamIT_T0_EES7_PKS4_m, symObjAddr: 0x5A94, symBinAddr: 0x1000097B4, symSize: 0x1EC }
  - { offsetInCU: 0x94C7, offset: 0x1C9CC, size: 0x8, addend: 0x0, symName: __ZNSt3__1lsB7v160006INS_11char_traitsIcEEEERNS_13basic_ostreamIcT_EES6_PKc, symObjAddr: 0xB94, symBinAddr: 0x1000048C0, symSize: 0x48 }
  - { offsetInCU: 0x950D, offset: 0x1CA12, size: 0x8, addend: 0x0, symName: __ZNSt3__14endlB7v160006IcNS_11char_traitsIcEEEERNS_13basic_ostreamIT_T0_EES7_, symObjAddr: 0xC08, symBinAddr: 0x100004934, symSize: 0x58 }
  - { offsetInCU: 0x954D, offset: 0x1CA52, size: 0x8, addend: 0x0, symName: __ZNSt3__1lsB7v160006IcNS_11char_traitsIcEENS_9allocatorIcEEEERNS_13basic_ostreamIT_T0_EES9_RKNS_12basic_stringIS6_S7_T1_EE, symObjAddr: 0xD2C, symBinAddr: 0x100004A58, symSize: 0x4C }
  - { offsetInCU: 0x95A5, offset: 0x1CAAA, size: 0x8, addend: 0x0, symName: __ZNSt3__119__debug_db_insert_cB7v160006INS_6vectorIP15RestaurantTableNS_9allocatorIS3_EEEEEEvPT_, symObjAddr: 0xE98, symBinAddr: 0x100004BB8, symSize: 0x10 }
  - { offsetInCU: 0x95D6, offset: 0x1CADB, size: 0x8, addend: 0x0, symName: __ZNSt3__118__debug_db_erase_cB7v160006INS_6vectorIP15RestaurantTableNS_9allocatorIS3_EEEEEEvPT_, symObjAddr: 0x115C, symBinAddr: 0x100004E7C, symSize: 0x10 }
  - { offsetInCU: 0x9607, offset: 0x1CB0C, size: 0x8, addend: 0x0, symName: __ZNSt3__112__to_addressB7v160006IP15RestaurantTableEEPT_S4_, symObjAddr: 0x12A0, symBinAddr: 0x100004FC0, symSize: 0x14 }
  - { offsetInCU: 0x963C, offset: 0x1CB41, size: 0x8, addend: 0x0, symName: __ZNSt3__119__libcpp_deallocateB7v160006EPvmm, symObjAddr: 0x13C0, symBinAddr: 0x1000050E0, symSize: 0x30 }
  - { offsetInCU: 0x9685, offset: 0x1CB8A, size: 0x8, addend: 0x0, symName: __ZNSt3__127__do_deallocate_handle_sizeB7v160006IJEEEvPvmDpT_, symObjAddr: 0x13F0, symBinAddr: 0x100005110, symSize: 0x28 }
  - { offsetInCU: 0x96C5, offset: 0x1CBCA, size: 0x8, addend: 0x0, symName: __ZNSt3__124__libcpp_operator_deleteB7v160006IJPvEEEvDpT_, symObjAddr: 0x1418, symBinAddr: 0x100005138, symSize: 0x24 }
  - { offsetInCU: 0x96FB, offset: 0x1CC00, size: 0x8, addend: 0x0, symName: __ZNSt3__119__debug_db_insert_cB7v160006INS_6vectorIP6WaiterNS_9allocatorIS3_EEEEEEvPT_, symObjAddr: 0x1568, symBinAddr: 0x100005288, symSize: 0x10 }
  - { offsetInCU: 0x972C, offset: 0x1CC31, size: 0x8, addend: 0x0, symName: __ZNSt3__118__debug_db_erase_cB7v160006INS_6vectorIP6WaiterNS_9allocatorIS3_EEEEEEvPT_, symObjAddr: 0x182C, symBinAddr: 0x10000554C, symSize: 0x10 }
  - { offsetInCU: 0x975D, offset: 0x1CC62, size: 0x8, addend: 0x0, symName: __ZNSt3__112__to_addressB7v160006IP6WaiterEEPT_S4_, symObjAddr: 0x1970, symBinAddr: 0x100005690, symSize: 0x14 }
  - { offsetInCU: 0x9792, offset: 0x1CC97, size: 0x8, addend: 0x0, symName: __ZNSt3__122__make_exception_guardB7v160006INS_6vectorIP6WaiterNS_9allocatorIS3_EEE16__destroy_vectorEEENS_28__exception_guard_exceptionsIT_EES9_, symObjAddr: 0x1CAC, symBinAddr: 0x1000059CC, symSize: 0x40 }
  - { offsetInCU: 0x97C8, offset: 0x1CCCD, size: 0x8, addend: 0x0, symName: __ZNSt3__119__allocate_at_leastB7v160006INS_9allocatorIP6WaiterEEEENS_19__allocation_resultINS_16allocator_traitsIT_E7pointerEEERS7_m, symObjAddr: 0x1FD4, symBinAddr: 0x100005CF4, symSize: 0x40 }
  - { offsetInCU: 0x980C, offset: 0x1CD11, size: 0x8, addend: 0x0, symName: __ZNSt3__13minB7v160006ImEERKT_S3_S3_, symObjAddr: 0x20E8, symBinAddr: 0x100005E08, symSize: 0x2C }
  - { offsetInCU: 0x9A5B, offset: 0x1CF60, size: 0x8, addend: 0x0, symName: __ZNSt3__13minB7v160006ImNS_6__lessImmEEEERKT_S5_S5_T0_, symObjAddr: 0x214C, symBinAddr: 0x100005E6C, symSize: 0x54 }
  - { offsetInCU: 0x9AF1, offset: 0x1CFF6, size: 0x8, addend: 0x0, symName: __ZNSt3__120__throw_length_errorB7v160006EPKc, symObjAddr: 0x21F0, symBinAddr: 0x100005F10, symSize: 0x64 }
  - { offsetInCU: 0x9B1A, offset: 0x1D01F, size: 0x8, addend: 0x0, symName: __ZNSt3__117__libcpp_allocateB7v160006Emm, symObjAddr: 0x2360, symBinAddr: 0x100006080, symSize: 0x28 }
  - { offsetInCU: 0x9B57, offset: 0x1D05C, size: 0x8, addend: 0x0, symName: __ZNSt3__121__libcpp_operator_newB7v160006IJmEEEPvDpT_, symObjAddr: 0x2388, symBinAddr: 0x1000060A8, symSize: 0x24 }
  - { offsetInCU: 0x9B90, offset: 0x1D095, size: 0x8, addend: 0x0, symName: __ZNSt3__130__uninitialized_allocator_copyB7v160006INS_9allocatorIP6WaiterEEPS3_S5_S5_EET2_RT_T0_T1_S6_, symObjAddr: 0x2420, symBinAddr: 0x100006140, symSize: 0xF4 }
  - { offsetInCU: 0x9C2E, offset: 0x1D133, size: 0x8, addend: 0x0, symName: __ZNSt3__122__make_exception_guardB7v160006INS_29_AllocatorDestroyRangeReverseINS_9allocatorIP6WaiterEEPS4_EEEENS_28__exception_guard_exceptionsIT_EES9_, symObjAddr: 0x2584, symBinAddr: 0x1000062A4, symSize: 0x4C }
  - { offsetInCU: 0x9C65, offset: 0x1D16A, size: 0x8, addend: 0x0, symName: __ZNSt3__119__allocator_destroyB7v160006INS_9allocatorIP6WaiterEENS_16reverse_iteratorIPS3_EES7_EEvRT_T0_T1_, symObjAddr: 0x280C, symBinAddr: 0x10000652C, symSize: 0x70 }
  - { offsetInCU: 0x9CC9, offset: 0x1D1CE, size: 0x8, addend: 0x0, symName: __ZNSt3__1neB7v160006IPP6WaiterS3_EEbRKNS_16reverse_iteratorIT_EERKNS4_IT0_EE, symObjAddr: 0x28B0, symBinAddr: 0x1000065D0, symSize: 0x48 }
  - { offsetInCU: 0x9D16, offset: 0x1D21B, size: 0x8, addend: 0x0, symName: __ZNSt3__112__to_addressB7v160006INS_16reverse_iteratorIPP6WaiterEEvEENS_5decayIDTclsr19__to_address_helperIT_EE6__callclsr3stdE7declvalIRKS7_EEEEE4typeES9_, symObjAddr: 0x28F8, symBinAddr: 0x100006618, symSize: 0x24 }
  - { offsetInCU: 0x9D77, offset: 0x1D27C, size: 0x8, addend: 0x0, symName: __ZNSt3__122__make_exception_guardB7v160006INS_6vectorIP15RestaurantTableNS_9allocatorIS3_EEE16__destroy_vectorEEENS_28__exception_guard_exceptionsIT_EES9_, symObjAddr: 0x2BF4, symBinAddr: 0x100006914, symSize: 0x40 }
  - { offsetInCU: 0x9DAD, offset: 0x1D2B2, size: 0x8, addend: 0x0, symName: __ZNSt3__119__allocate_at_leastB7v160006INS_9allocatorIP15RestaurantTableEEEENS_19__allocation_resultINS_16allocator_traitsIT_E7pointerEEERS7_m, symObjAddr: 0x2F1C, symBinAddr: 0x100006C3C, symSize: 0x40 }
  - { offsetInCU: 0x9DF1, offset: 0x1D2F6, size: 0x8, addend: 0x0, symName: __ZNSt3__130__uninitialized_allocator_copyB7v160006INS_9allocatorIP15RestaurantTableEEPS3_S5_S5_EET2_RT_T0_T1_S6_, symObjAddr: 0x3134, symBinAddr: 0x100006E54, symSize: 0xF4 }
  - { offsetInCU: 0x9E8F, offset: 0x1D394, size: 0x8, addend: 0x0, symName: __ZNSt3__122__make_exception_guardB7v160006INS_29_AllocatorDestroyRangeReverseINS_9allocatorIP15RestaurantTableEEPS4_EEEENS_28__exception_guard_exceptionsIT_EES9_, symObjAddr: 0x3298, symBinAddr: 0x100006FB8, symSize: 0x4C }
  - { offsetInCU: 0x9EC6, offset: 0x1D3CB, size: 0x8, addend: 0x0, symName: __ZNSt3__119__allocator_destroyB7v160006INS_9allocatorIP15RestaurantTableEENS_16reverse_iteratorIPS3_EES7_EEvRT_T0_T1_, symObjAddr: 0x3520, symBinAddr: 0x100007240, symSize: 0x70 }
  - { offsetInCU: 0x9F2A, offset: 0x1D42F, size: 0x8, addend: 0x0, symName: __ZNSt3__1neB7v160006IPP15RestaurantTableS3_EEbRKNS_16reverse_iteratorIT_EERKNS4_IT0_EE, symObjAddr: 0x35C4, symBinAddr: 0x1000072E4, symSize: 0x48 }
  - { offsetInCU: 0x9F77, offset: 0x1D47C, size: 0x8, addend: 0x0, symName: __ZNSt3__112__to_addressB7v160006INS_16reverse_iteratorIPP15RestaurantTableEEvEENS_5decayIDTclsr19__to_address_helperIT_EE6__callclsr3stdE7declvalIRKS7_EEEEE4typeES9_, symObjAddr: 0x360C, symBinAddr: 0x10000732C, symSize: 0x24 }
  - { offsetInCU: 0x9FD8, offset: 0x1D4DD, size: 0x8, addend: 0x0, symName: __ZNSt3__119__debug_db_insert_cB7v160006INS_12basic_stringIcNS_11char_traitsIcEENS_9allocatorIcEEEEEEvPT_, symObjAddr: 0x3854, symBinAddr: 0x100007574, symSize: 0x10 }
  - { offsetInCU: 0xA009, offset: 0x1D50E, size: 0x8, addend: 0x0, symName: __ZNSt3__118__constexpr_strlenB7v160006EPKc, symObjAddr: 0x3920, symBinAddr: 0x100007640, symSize: 0x24 }
  - { offsetInCU: 0xA036, offset: 0x1D53B, size: 0x8, addend: 0x0, symName: __ZNSt3__13maxB7v160006ImEERKT_S3_S3_, symObjAddr: 0x3D44, symBinAddr: 0x100007A64, symSize: 0x2C }
  - { offsetInCU: 0xA07A, offset: 0x1D57F, size: 0x8, addend: 0x0, symName: __ZNSt3__13maxB7v160006ImNS_6__lessImmEEEERKT_S5_S5_T0_, symObjAddr: 0x3D70, symBinAddr: 0x100007A90, symSize: 0x54 }
  - { offsetInCU: 0xA0D5, offset: 0x1D5DA, size: 0x8, addend: 0x0, symName: __ZNSt3__142__uninitialized_allocator_move_if_noexceptB7v160006INS_9allocatorIP6WaiterEENS_16reverse_iteratorIPS3_EES7_S3_vEET1_RT_T0_SB_S8_, symObjAddr: 0x3FF0, symBinAddr: 0x100007D10, symSize: 0x78 }
  - { offsetInCU: 0xA153, offset: 0x1D658, size: 0x8, addend: 0x0, symName: __ZNSt3__14swapB7v160006IPP6WaiterEENS_9enable_ifIXaasr21is_move_constructibleIT_EE5valuesr18is_move_assignableIS5_EE5valueEvE4typeERS5_S8_, symObjAddr: 0x4068, symBinAddr: 0x100007D88, symSize: 0x3C }
  - { offsetInCU: 0xA1A5, offset: 0x1D6AA, size: 0x8, addend: 0x0, symName: __ZNSt3__125__debug_db_invalidate_allB7v160006INS_6vectorIP6WaiterNS_9allocatorIS3_EEEEEEvPT_, symObjAddr: 0x40A4, symBinAddr: 0x100007DC4, symSize: 0x10 }
  - { offsetInCU: 0xA1D6, offset: 0x1D6DB, size: 0x8, addend: 0x0, symName: __ZNSt3__14moveB7v160006INS_16reverse_iteratorIPP6WaiterEES5_EET0_T_S7_S6_, symObjAddr: 0x40B4, symBinAddr: 0x100007DD4, symSize: 0x78 }
  - { offsetInCU: 0xA231, offset: 0x1D736, size: 0x8, addend: 0x0, symName: __ZNSt3__16__moveB7v160006INS_17_ClassicAlgPolicyENS_16reverse_iteratorIPP6WaiterEES6_S6_EENS_4pairIT0_T2_EES8_T1_S9_, symObjAddr: 0x412C, symBinAddr: 0x100007E4C, symSize: 0x64 }
  - { offsetInCU: 0xA29E, offset: 0x1D7A3, size: 0x8, addend: 0x0, symName: __ZNSt3__123__dispatch_copy_or_moveB7v160006INS_17_ClassicAlgPolicyENS_11__move_loopIS1_EENS_14__move_trivialENS_16reverse_iteratorIPP6WaiterEES9_S9_EENS_4pairIT2_T4_EESB_T3_SC_, symObjAddr: 0x4190, symBinAddr: 0x100007EB0, symSize: 0x64 }
  - { offsetInCU: 0xA31D, offset: 0x1D822, size: 0x8, addend: 0x0, symName: __ZNSt3__121__unwrap_and_dispatchB7v160006INS_10__overloadINS_11__move_loopINS_17_ClassicAlgPolicyEEENS_14__move_trivialEEENS_16reverse_iteratorIPP6WaiterEESB_SB_Li0EEENS_4pairIT0_T2_EESD_T1_SE_, symObjAddr: 0x41F4, symBinAddr: 0x100007F14, symSize: 0x12C }
  - { offsetInCU: 0xA3B0, offset: 0x1D8B5, size: 0x8, addend: 0x0, symName: __ZNSt3__114__unwrap_rangeB7v160006INS_16reverse_iteratorIPP6WaiterEES5_EENS_4pairIT0_S7_EET_S9_, symObjAddr: 0x4320, symBinAddr: 0x100008040, symSize: 0x84 }
  - { offsetInCU: 0xA56C, offset: 0x1DA71, size: 0x8, addend: 0x0, symName: __ZNSt3__113__unwrap_iterB7v160006INS_16reverse_iteratorIPP6WaiterEENS_18__unwrap_iter_implIS5_Lb0EEELi0EEEDTclsrT0_8__unwrapclsr3stdE7declvalIT_EEEES9_, symObjAddr: 0x4444, symBinAddr: 0x100008164, symSize: 0x44 }
  - { offsetInCU: 0xA5B1, offset: 0x1DAB6, size: 0x8, addend: 0x0, symName: __ZNSt3__19make_pairB7v160006INS_16reverse_iteratorIPP6WaiterEES5_EENS_4pairINS_18__unwrap_ref_decayIT_E4typeENS7_IT0_E4typeEEEOS8_OSB_, symObjAddr: 0x4488, symBinAddr: 0x1000081A8, symSize: 0x38 }
  - { offsetInCU: 0xA600, offset: 0x1DB05, size: 0x8, addend: 0x0, symName: __ZNSt3__114__rewrap_rangeB7v160006INS_16reverse_iteratorIPP6WaiterEES5_EET_S6_T0_, symObjAddr: 0x44C0, symBinAddr: 0x1000081E0, symSize: 0x5C }
  - { offsetInCU: 0xA64D, offset: 0x1DB52, size: 0x8, addend: 0x0, symName: __ZNSt3__113__rewrap_iterB7v160006INS_16reverse_iteratorIPP6WaiterEES5_NS_18__unwrap_iter_implIS5_Lb0EEEEET_S8_T0_, symObjAddr: 0x451C, symBinAddr: 0x10000823C, symSize: 0x74 }
  - { offsetInCU: 0xA789, offset: 0x1DC8E, size: 0x8, addend: 0x0, symName: __ZNSt3__142__uninitialized_allocator_move_if_noexceptB7v160006INS_9allocatorIP15RestaurantTableEENS_16reverse_iteratorIPS3_EES7_S3_vEET1_RT_T0_SB_S8_, symObjAddr: 0x4E94, symBinAddr: 0x100008BB4, symSize: 0x78 }
  - { offsetInCU: 0xA807, offset: 0x1DD0C, size: 0x8, addend: 0x0, symName: __ZNSt3__14swapB7v160006IPP15RestaurantTableEENS_9enable_ifIXaasr21is_move_constructibleIT_EE5valuesr18is_move_assignableIS5_EE5valueEvE4typeERS5_S8_, symObjAddr: 0x4F0C, symBinAddr: 0x100008C2C, symSize: 0x3C }
  - { offsetInCU: 0xA859, offset: 0x1DD5E, size: 0x8, addend: 0x0, symName: __ZNSt3__125__debug_db_invalidate_allB7v160006INS_6vectorIP15RestaurantTableNS_9allocatorIS3_EEEEEEvPT_, symObjAddr: 0x4F48, symBinAddr: 0x100008C68, symSize: 0x10 }
  - { offsetInCU: 0xA88A, offset: 0x1DD8F, size: 0x8, addend: 0x0, symName: __ZNSt3__14moveB7v160006INS_16reverse_iteratorIPP15RestaurantTableEES5_EET0_T_S7_S6_, symObjAddr: 0x4F58, symBinAddr: 0x100008C78, symSize: 0x78 }
  - { offsetInCU: 0xA8E5, offset: 0x1DDEA, size: 0x8, addend: 0x0, symName: __ZNSt3__16__moveB7v160006INS_17_ClassicAlgPolicyENS_16reverse_iteratorIPP15RestaurantTableEES6_S6_EENS_4pairIT0_T2_EES8_T1_S9_, symObjAddr: 0x4FD0, symBinAddr: 0x100008CF0, symSize: 0x64 }
  - { offsetInCU: 0xA952, offset: 0x1DE57, size: 0x8, addend: 0x0, symName: __ZNSt3__123__dispatch_copy_or_moveB7v160006INS_17_ClassicAlgPolicyENS_11__move_loopIS1_EENS_14__move_trivialENS_16reverse_iteratorIPP15RestaurantTableEES9_S9_EENS_4pairIT2_T4_EESB_T3_SC_, symObjAddr: 0x5034, symBinAddr: 0x100008D54, symSize: 0x64 }
  - { offsetInCU: 0xA9D1, offset: 0x1DED6, size: 0x8, addend: 0x0, symName: __ZNSt3__121__unwrap_and_dispatchB7v160006INS_10__overloadINS_11__move_loopINS_17_ClassicAlgPolicyEEENS_14__move_trivialEEENS_16reverse_iteratorIPP15RestaurantTableEESB_SB_Li0EEENS_4pairIT0_T2_EESD_T1_SE_, symObjAddr: 0x5098, symBinAddr: 0x100008DB8, symSize: 0x12C }
  - { offsetInCU: 0xAA64, offset: 0x1DF69, size: 0x8, addend: 0x0, symName: __ZNSt3__114__unwrap_rangeB7v160006INS_16reverse_iteratorIPP15RestaurantTableEES5_EENS_4pairIT0_S7_EET_S9_, symObjAddr: 0x51C4, symBinAddr: 0x100008EE4, symSize: 0x84 }
  - { offsetInCU: 0xAB86, offset: 0x1E08B, size: 0x8, addend: 0x0, symName: __ZNSt3__113__unwrap_iterB7v160006INS_16reverse_iteratorIPP15RestaurantTableEENS_18__unwrap_iter_implIS5_Lb0EEELi0EEEDTclsrT0_8__unwrapclsr3stdE7declvalIT_EEEES9_, symObjAddr: 0x52E8, symBinAddr: 0x100009008, symSize: 0x44 }
  - { offsetInCU: 0xABCB, offset: 0x1E0D0, size: 0x8, addend: 0x0, symName: __ZNSt3__19make_pairB7v160006INS_16reverse_iteratorIPP15RestaurantTableEES5_EENS_4pairINS_18__unwrap_ref_decayIT_E4typeENS7_IT0_E4typeEEEOS8_OSB_, symObjAddr: 0x532C, symBinAddr: 0x10000904C, symSize: 0x38 }
  - { offsetInCU: 0xAC1A, offset: 0x1E11F, size: 0x8, addend: 0x0, symName: __ZNSt3__114__rewrap_rangeB7v160006INS_16reverse_iteratorIPP15RestaurantTableEES5_EET_S6_T0_, symObjAddr: 0x5364, symBinAddr: 0x100009084, symSize: 0x5C }
  - { offsetInCU: 0xAC67, offset: 0x1E16C, size: 0x8, addend: 0x0, symName: __ZNSt3__113__rewrap_iterB7v160006INS_16reverse_iteratorIPP15RestaurantTableEES5_NS_18__unwrap_iter_implIS5_Lb0EEEEET_S8_T0_, symObjAddr: 0x53C0, symBinAddr: 0x1000090E0, symSize: 0x74 }
  - { offsetInCU: 0xAD2A, offset: 0x1E22F, size: 0x8, addend: 0x0, symName: __ZNSt3__116__pad_and_outputB7v160006IcNS_11char_traitsIcEEEENS_19ostreambuf_iteratorIT_T0_EES6_PKS4_S8_S8_RNS_8ios_baseES4_, symObjAddr: 0x5C9C, symBinAddr: 0x1000099BC, symSize: 0x240 }
  - { offsetInCU: 0xADF9, offset: 0x1E2FE, size: 0x8, addend: 0x0, symName: __ZNSt3__112__to_addressB7v160006IKcEEPT_S3_, symObjAddr: 0x6114, symBinAddr: 0x100009E34, symSize: 0x14 }
  - { offsetInCU: 0xAE61, offset: 0x1E366, size: 0x8, addend: 0x0, symName: __ZNSt3__19use_facetB7v160006INS_5ctypeIcEEEERKT_RKNS_6localeE, symObjAddr: 0x6394, symBinAddr: 0x10000A0B4, symSize: 0x2C }
  - { offsetInCU: 0xB691, offset: 0x1EB96, size: 0x8, addend: 0x0, symName: __ZSt28__throw_bad_array_new_lengthB7v160006v, symObjAddr: 0x232C, symBinAddr: 0x10000604C, symSize: 0x34 }
  - { offsetInCU: 0xC47A, offset: 0x1F97F, size: 0x8, addend: 0x0, symName: __ZNSt3__16vectorIP6WaiterNS_9allocatorIS2_EEE26__swap_out_circular_bufferERNS_14__split_bufferIS2_RS4_EE, symObjAddr: 0x3C00, symBinAddr: 0x100007920, symSize: 0x118 }
  - { offsetInCU: 0xC4BC, offset: 0x1F9C1, size: 0x8, addend: 0x0, symName: __ZNSt3__16vectorIP15RestaurantTableNS_9allocatorIS2_EEE26__swap_out_circular_bufferERNS_14__split_bufferIS2_RS4_EE, symObjAddr: 0x4B24, symBinAddr: 0x100008844, symSize: 0x118 }
  - { offsetInCU: 0xE77F, offset: 0x21C84, size: 0x8, addend: 0x0, symName: __ZN6FacadeC2Ev, symObjAddr: 0x0, symBinAddr: 0x100003D2C, symSize: 0x58C }
  - { offsetInCU: 0xE7DE, offset: 0x21CE3, size: 0x8, addend: 0x0, symName: __ZNSt3__16vectorIP15RestaurantTableNS_9allocatorIS2_EEEC1B7v160006Ev, symObjAddr: 0x58C, symBinAddr: 0x1000042B8, symSize: 0x2C }
  - { offsetInCU: 0xE806, offset: 0x21D0B, size: 0x8, addend: 0x0, symName: __ZNSt3__16vectorIP6WaiterNS_9allocatorIS2_EEEC1B7v160006Ev, symObjAddr: 0x5B8, symBinAddr: 0x1000042E4, symSize: 0x2C }
  - { offsetInCU: 0xE82E, offset: 0x21D33, size: 0x8, addend: 0x0, symName: __ZNSt3__16vectorIP6WaiterNS_9allocatorIS2_EEEC1ERKS5_, symObjAddr: 0x5E4, symBinAddr: 0x100004310, symSize: 0x34 }
  - { offsetInCU: 0xE868, offset: 0x21D6D, size: 0x8, addend: 0x0, symName: __ZNSt3__16vectorIP6WaiterNS_9allocatorIS2_EEED1B7v160006Ev, symObjAddr: 0x618, symBinAddr: 0x100004344, symSize: 0x2C }
  - { offsetInCU: 0xE890, offset: 0x21D95, size: 0x8, addend: 0x0, symName: __ZNSt3__16vectorIP15RestaurantTableNS_9allocatorIS2_EEEC1ERKS5_, symObjAddr: 0x644, symBinAddr: 0x100004370, symSize: 0x34 }
  - { offsetInCU: 0xE8CA, offset: 0x21DCF, size: 0x8, addend: 0x0, symName: __ZNSt3__16vectorIP15RestaurantTableNS_9allocatorIS2_EEED1B7v160006Ev, symObjAddr: 0x678, symBinAddr: 0x1000043A4, symSize: 0x2C }
  - { offsetInCU: 0xE8F7, offset: 0x21DFC, size: 0x8, addend: 0x0, symName: __ZNSt3__112basic_stringIcNS_11char_traitsIcEENS_9allocatorIcEEEC1B7v160006IDnEEPKc, symObjAddr: 0x6A4, symBinAddr: 0x1000043D0, symSize: 0x34 }
  - { offsetInCU: 0xE932, offset: 0x21E37, size: 0x8, addend: 0x0, symName: __ZNSt3__16vectorIP6WaiterNS_9allocatorIS2_EEE9push_backB7v160006EOS2_, symObjAddr: 0x6D8, symBinAddr: 0x100004404, symSize: 0x6C }
  - { offsetInCU: 0xE968, offset: 0x21E6D, size: 0x8, addend: 0x0, symName: __ZNSt3__16vectorIP15RestaurantTableNS_9allocatorIS2_EEE9push_backB7v160006EOS2_, symObjAddr: 0x744, symBinAddr: 0x100004470, symSize: 0x6C }
  - { offsetInCU: 0xE99F, offset: 0x21EA4, size: 0x8, addend: 0x0, symName: __ZN6FacadeC1Ev, symObjAddr: 0x7B0, symBinAddr: 0x1000044DC, symSize: 0x2C }
  - { offsetInCU: 0xE9C9, offset: 0x21ECE, size: 0x8, addend: 0x0, symName: __ZN6Facade8addTableEP15RestaurantTable, symObjAddr: 0x7DC, symBinAddr: 0x100004508, symSize: 0x30 }
  - { offsetInCU: 0xE9FC, offset: 0x21F01, size: 0x8, addend: 0x0, symName: __ZNSt3__16vectorIP15RestaurantTableNS_9allocatorIS2_EEE9push_backB7v160006ERKS2_, symObjAddr: 0x80C, symBinAddr: 0x100004538, symSize: 0x6C }
  - { offsetInCU: 0xEA33, offset: 0x21F38, size: 0x8, addend: 0x0, symName: __ZN6Facade9addWaiterEP6Waiter, symObjAddr: 0x878, symBinAddr: 0x1000045A4, symSize: 0x34 }
  - { offsetInCU: 0xEA66, offset: 0x21F6B, size: 0x8, addend: 0x0, symName: __ZNSt3__16vectorIP6WaiterNS_9allocatorIS2_EEE9push_backB7v160006ERKS2_, symObjAddr: 0x8AC, symBinAddr: 0x1000045D8, symSize: 0x6C }
  - { offsetInCU: 0xEA9D, offset: 0x21FA2, size: 0x8, addend: 0x0, symName: __ZN6Facade17getWaiterIteratorEv, symObjAddr: 0x918, symBinAddr: 0x100004644, symSize: 0x18 }
  - { offsetInCU: 0xEAC3, offset: 0x21FC8, size: 0x8, addend: 0x0, symName: __ZN6Facade16getTableIteratorEv, symObjAddr: 0x930, symBinAddr: 0x10000465C, symSize: 0x18 }
  - { offsetInCU: 0xEAE9, offset: 0x21FEE, size: 0x8, addend: 0x0, symName: __ZN6Facade8getTableEi, symObjAddr: 0x948, symBinAddr: 0x100004674, symSize: 0x30 }
  - { offsetInCU: 0xEB1D, offset: 0x22022, size: 0x8, addend: 0x0, symName: __ZNSt3__16vectorIP15RestaurantTableNS_9allocatorIS2_EEEixB7v160006Em, symObjAddr: 0x978, symBinAddr: 0x1000046A4, symSize: 0x24 }
  - { offsetInCU: 0xEB53, offset: 0x22058, size: 0x8, addend: 0x0, symName: __ZNK6Facade13getWaiterSizeEv, symObjAddr: 0x99C, symBinAddr: 0x1000046C8, symSize: 0x18 }
  - { offsetInCU: 0xEB79, offset: 0x2207E, size: 0x8, addend: 0x0, symName: __ZNK6Facade18getTablesPerWaiterEv, symObjAddr: 0x9B4, symBinAddr: 0x1000046E0, symSize: 0x18 }
  - { offsetInCU: 0xEB9F, offset: 0x220A4, size: 0x8, addend: 0x0, symName: __ZNK6Facade14getTotalTablesEv, symObjAddr: 0x9CC, symBinAddr: 0x1000046F8, symSize: 0x18 }
  - { offsetInCU: 0xEBC5, offset: 0x220CA, size: 0x8, addend: 0x0, symName: __ZN6Facade9getSeatedEv, symObjAddr: 0x9E4, symBinAddr: 0x100004710, symSize: 0x1B0 }
  - { offsetInCU: 0xEBFA, offset: 0x220FF, size: 0x8, addend: 0x0, symName: __ZNSt3__113basic_ostreamIcNS_11char_traitsIcEEElsB7v160006EPFRS3_S4_E, symObjAddr: 0xBDC, symBinAddr: 0x100004908, symSize: 0x2C }
  - { offsetInCU: 0xEC2D, offset: 0x22132, size: 0x8, addend: 0x0, symName: __ZN6Facade9getWaiterEP15RestaurantTable, symObjAddr: 0xC60, symBinAddr: 0x10000498C, symSize: 0xCC }
  - { offsetInCU: 0xEC70, offset: 0x22175, size: 0x8, addend: 0x0, symName: __ZN6Facade10addToOrderEiP8MenuItem, symObjAddr: 0xD78, symBinAddr: 0x100004AA4, symSize: 0x44 }
  - { offsetInCU: 0xECC1, offset: 0x221C6, size: 0x8, addend: 0x0, symName: __ZN6Facade12confirmOrderEi, symObjAddr: 0xDBC, symBinAddr: 0x100004AE8, symSize: 0x3C }
  - { offsetInCU: 0xED04, offset: 0x22209, size: 0x8, addend: 0x0, symName: __ZNSt3__16vectorIP15RestaurantTableNS_9allocatorIS2_EEEC2B7v160006Ev, symObjAddr: 0xDF8, symBinAddr: 0x100004B24, symSize: 0x58 }
  - { offsetInCU: 0xED36, offset: 0x2223B, size: 0x8, addend: 0x0, symName: __ZNSt3__117__compressed_pairIPP15RestaurantTableNS_9allocatorIS2_EEEC1B7v160006IDnNS_18__default_init_tagEEEOT_OT0_, symObjAddr: 0xE50, symBinAddr: 0x100004B7C, symSize: 0x3C }
  - { offsetInCU: 0xED8C, offset: 0x22291, size: 0x8, addend: 0x0, symName: __ZNSt3__117__compressed_pairIPP15RestaurantTableNS_9allocatorIS2_EEEC2B7v160006IDnNS_18__default_init_tagEEEOT_OT0_, symObjAddr: 0xEA8, symBinAddr: 0x100004BC8, symSize: 0x40 }
  - { offsetInCU: 0xEDE2, offset: 0x222E7, size: 0x8, addend: 0x0, symName: __ZNSt3__122__compressed_pair_elemIPP15RestaurantTableLi0ELb0EEC2B7v160006IDnvEEOT_, symObjAddr: 0xEE8, symBinAddr: 0x100004C08, symSize: 0x1C }
  - { offsetInCU: 0xEE22, offset: 0x22327, size: 0x8, addend: 0x0, symName: __ZNSt3__122__compressed_pair_elemINS_9allocatorIP15RestaurantTableEELi1ELb1EEC2B7v160006ENS_18__default_init_tagE, symObjAddr: 0xF04, symBinAddr: 0x100004C24, symSize: 0x2C }
  - { offsetInCU: 0xEE54, offset: 0x22359, size: 0x8, addend: 0x0, symName: __ZNSt3__19allocatorIP15RestaurantTableEC2B7v160006Ev, symObjAddr: 0xF30, symBinAddr: 0x100004C50, symSize: 0x2C }
  - { offsetInCU: 0xEE7C, offset: 0x22381, size: 0x8, addend: 0x0, symName: __ZNSt3__116__non_trivial_ifILb1ENS_9allocatorIP15RestaurantTableEEEC2B7v160006Ev, symObjAddr: 0xF5C, symBinAddr: 0x100004C7C, symSize: 0x14 }
  - { offsetInCU: 0xEEA4, offset: 0x223A9, size: 0x8, addend: 0x0, symName: __ZNSt3__16vectorIP15RestaurantTableNS_9allocatorIS2_EEED2B7v160006Ev, symObjAddr: 0xF70, symBinAddr: 0x100004C90, symSize: 0x44 }
  - { offsetInCU: 0xEECC, offset: 0x223D1, size: 0x8, addend: 0x0, symName: __ZNSt3__16vectorIP15RestaurantTableNS_9allocatorIS2_EEE16__destroy_vectorC1ERS5_, symObjAddr: 0xFB4, symBinAddr: 0x100004CD4, symSize: 0x34 }
  - { offsetInCU: 0xEF03, offset: 0x22408, size: 0x8, addend: 0x0, symName: __ZNSt3__16vectorIP15RestaurantTableNS_9allocatorIS2_EEE16__destroy_vectorclB7v160006Ev, symObjAddr: 0xFE8, symBinAddr: 0x100004D08, symSize: 0x9C }
  - { offsetInCU: 0xEF28, offset: 0x2242D, size: 0x8, addend: 0x0, symName: __ZNSt3__16vectorIP15RestaurantTableNS_9allocatorIS2_EEE16__destroy_vectorC2ERS5_, symObjAddr: 0x1084, symBinAddr: 0x100004DA4, symSize: 0x20 }
  - { offsetInCU: 0xEF5F, offset: 0x22464, size: 0x8, addend: 0x0, symName: __ZNKSt3__16vectorIP15RestaurantTableNS_9allocatorIS2_EEE17__annotate_deleteB7v160006Ev, symObjAddr: 0x10A4, symBinAddr: 0x100004DC4, symSize: 0xB8 }
  - { offsetInCU: 0xEF84, offset: 0x22489, size: 0x8, addend: 0x0, symName: __ZNSt3__16vectorIP15RestaurantTableNS_9allocatorIS2_EEE7__clearB7v160006Ev, symObjAddr: 0x116C, symBinAddr: 0x100004E8C, symSize: 0x28 }
  - { offsetInCU: 0xEFA9, offset: 0x224AE, size: 0x8, addend: 0x0, symName: __ZNSt3__116allocator_traitsINS_9allocatorIP15RestaurantTableEEE10deallocateB7v160006ERS4_PS3_m, symObjAddr: 0x1194, symBinAddr: 0x100004EB4, symSize: 0x34 }
  - { offsetInCU: 0xEFEB, offset: 0x224F0, size: 0x8, addend: 0x0, symName: __ZNSt3__16vectorIP15RestaurantTableNS_9allocatorIS2_EEE7__allocB7v160006Ev, symObjAddr: 0x11C8, symBinAddr: 0x100004EE8, symSize: 0x28 }
  - { offsetInCU: 0xF010, offset: 0x22515, size: 0x8, addend: 0x0, symName: __ZNKSt3__16vectorIP15RestaurantTableNS_9allocatorIS2_EEE8capacityB7v160006Ev, symObjAddr: 0x11F0, symBinAddr: 0x100004F10, symSize: 0x40 }
  - { offsetInCU: 0xF035, offset: 0x2253A, size: 0x8, addend: 0x0, symName: __ZNKSt3__16vectorIP15RestaurantTableNS_9allocatorIS2_EEE31__annotate_contiguous_containerB7v160006EPKvS7_S7_S7_, symObjAddr: 0x1230, symBinAddr: 0x100004F50, symSize: 0x20 }
  - { offsetInCU: 0xF08A, offset: 0x2258F, size: 0x8, addend: 0x0, symName: __ZNKSt3__16vectorIP15RestaurantTableNS_9allocatorIS2_EEE4dataB7v160006Ev, symObjAddr: 0x1250, symBinAddr: 0x100004F70, symSize: 0x28 }
  - { offsetInCU: 0xF0AF, offset: 0x225B4, size: 0x8, addend: 0x0, symName: __ZNKSt3__16vectorIP15RestaurantTableNS_9allocatorIS2_EEE4sizeB7v160006Ev, symObjAddr: 0x1278, symBinAddr: 0x100004F98, symSize: 0x28 }
  - { offsetInCU: 0xF0D4, offset: 0x225D9, size: 0x8, addend: 0x0, symName: __ZNSt3__16vectorIP15RestaurantTableNS_9allocatorIS2_EEE22__base_destruct_at_endB7v160006EPS2_, symObjAddr: 0x12B4, symBinAddr: 0x100004FD4, symSize: 0x8C }
  - { offsetInCU: 0xF117, offset: 0x2261C, size: 0x8, addend: 0x0, symName: __ZNSt3__116allocator_traitsINS_9allocatorIP15RestaurantTableEEE7destroyB7v160006IS3_vEEvRS4_PT_, symObjAddr: 0x1340, symBinAddr: 0x100005060, symSize: 0x2C }
  - { offsetInCU: 0xF154, offset: 0x22659, size: 0x8, addend: 0x0, symName: __ZNSt3__19allocatorIP15RestaurantTableE7destroyB7v160006EPS2_, symObjAddr: 0x136C, symBinAddr: 0x10000508C, symSize: 0x14 }
  - { offsetInCU: 0xF187, offset: 0x2268C, size: 0x8, addend: 0x0, symName: __ZNSt3__19allocatorIP15RestaurantTableE10deallocateB7v160006EPS2_m, symObjAddr: 0x1380, symBinAddr: 0x1000050A0, symSize: 0x40 }
  - { offsetInCU: 0xF1C8, offset: 0x226CD, size: 0x8, addend: 0x0, symName: __ZNSt3__117__compressed_pairIPP15RestaurantTableNS_9allocatorIS2_EEE6secondB7v160006Ev, symObjAddr: 0x143C, symBinAddr: 0x10000515C, symSize: 0x24 }
  - { offsetInCU: 0xF1ED, offset: 0x226F2, size: 0x8, addend: 0x0, symName: __ZNSt3__122__compressed_pair_elemINS_9allocatorIP15RestaurantTableEELi1ELb1EE5__getB7v160006Ev, symObjAddr: 0x1460, symBinAddr: 0x100005180, symSize: 0x14 }
  - { offsetInCU: 0xF212, offset: 0x22717, size: 0x8, addend: 0x0, symName: __ZNKSt3__16vectorIP15RestaurantTableNS_9allocatorIS2_EEE9__end_capB7v160006Ev, symObjAddr: 0x1474, symBinAddr: 0x100005194, symSize: 0x28 }
  - { offsetInCU: 0xF237, offset: 0x2273C, size: 0x8, addend: 0x0, symName: __ZNKSt3__117__compressed_pairIPP15RestaurantTableNS_9allocatorIS2_EEE5firstB7v160006Ev, symObjAddr: 0x149C, symBinAddr: 0x1000051BC, symSize: 0x24 }
  - { offsetInCU: 0xF25C, offset: 0x22761, size: 0x8, addend: 0x0, symName: __ZNKSt3__122__compressed_pair_elemIPP15RestaurantTableLi0ELb0EE5__getB7v160006Ev, symObjAddr: 0x14C0, symBinAddr: 0x1000051E0, symSize: 0x14 }
  - { offsetInCU: 0xF281, offset: 0x22786, size: 0x8, addend: 0x0, symName: __ZNSt3__16vectorIP6WaiterNS_9allocatorIS2_EEEC2B7v160006Ev, symObjAddr: 0x14D4, symBinAddr: 0x1000051F4, symSize: 0x58 }
  - { offsetInCU: 0xF2A9, offset: 0x227AE, size: 0x8, addend: 0x0, symName: __ZNSt3__117__compressed_pairIPP6WaiterNS_9allocatorIS2_EEEC1B7v160006IDnNS_18__default_init_tagEEEOT_OT0_, symObjAddr: 0x152C, symBinAddr: 0x10000524C, symSize: 0x3C }
  - { offsetInCU: 0xF2FF, offset: 0x22804, size: 0x8, addend: 0x0, symName: __ZNSt3__117__compressed_pairIPP6WaiterNS_9allocatorIS2_EEEC2B7v160006IDnNS_18__default_init_tagEEEOT_OT0_, symObjAddr: 0x1578, symBinAddr: 0x100005298, symSize: 0x40 }
  - { offsetInCU: 0xF355, offset: 0x2285A, size: 0x8, addend: 0x0, symName: __ZNSt3__122__compressed_pair_elemIPP6WaiterLi0ELb0EEC2B7v160006IDnvEEOT_, symObjAddr: 0x15B8, symBinAddr: 0x1000052D8, symSize: 0x1C }
  - { offsetInCU: 0xF395, offset: 0x2289A, size: 0x8, addend: 0x0, symName: __ZNSt3__122__compressed_pair_elemINS_9allocatorIP6WaiterEELi1ELb1EEC2B7v160006ENS_18__default_init_tagE, symObjAddr: 0x15D4, symBinAddr: 0x1000052F4, symSize: 0x2C }
  - { offsetInCU: 0xF3C7, offset: 0x228CC, size: 0x8, addend: 0x0, symName: __ZNSt3__19allocatorIP6WaiterEC2B7v160006Ev, symObjAddr: 0x1600, symBinAddr: 0x100005320, symSize: 0x2C }
  - { offsetInCU: 0xF3EF, offset: 0x228F4, size: 0x8, addend: 0x0, symName: __ZNSt3__116__non_trivial_ifILb1ENS_9allocatorIP6WaiterEEEC2B7v160006Ev, symObjAddr: 0x162C, symBinAddr: 0x10000534C, symSize: 0x14 }
  - { offsetInCU: 0xF417, offset: 0x2291C, size: 0x8, addend: 0x0, symName: __ZNSt3__16vectorIP6WaiterNS_9allocatorIS2_EEED2B7v160006Ev, symObjAddr: 0x1640, symBinAddr: 0x100005360, symSize: 0x44 }
  - { offsetInCU: 0xF43F, offset: 0x22944, size: 0x8, addend: 0x0, symName: __ZNSt3__16vectorIP6WaiterNS_9allocatorIS2_EEE16__destroy_vectorC1ERS5_, symObjAddr: 0x1684, symBinAddr: 0x1000053A4, symSize: 0x34 }
  - { offsetInCU: 0xF476, offset: 0x2297B, size: 0x8, addend: 0x0, symName: __ZNSt3__16vectorIP6WaiterNS_9allocatorIS2_EEE16__destroy_vectorclB7v160006Ev, symObjAddr: 0x16B8, symBinAddr: 0x1000053D8, symSize: 0x9C }
  - { offsetInCU: 0xF49B, offset: 0x229A0, size: 0x8, addend: 0x0, symName: __ZNSt3__16vectorIP6WaiterNS_9allocatorIS2_EEE16__destroy_vectorC2ERS5_, symObjAddr: 0x1754, symBinAddr: 0x100005474, symSize: 0x20 }
  - { offsetInCU: 0xF4D2, offset: 0x229D7, size: 0x8, addend: 0x0, symName: __ZNKSt3__16vectorIP6WaiterNS_9allocatorIS2_EEE17__annotate_deleteB7v160006Ev, symObjAddr: 0x1774, symBinAddr: 0x100005494, symSize: 0xB8 }
  - { offsetInCU: 0xF4F7, offset: 0x229FC, size: 0x8, addend: 0x0, symName: __ZNSt3__16vectorIP6WaiterNS_9allocatorIS2_EEE7__clearB7v160006Ev, symObjAddr: 0x183C, symBinAddr: 0x10000555C, symSize: 0x28 }
  - { offsetInCU: 0xF51C, offset: 0x22A21, size: 0x8, addend: 0x0, symName: __ZNSt3__116allocator_traitsINS_9allocatorIP6WaiterEEE10deallocateB7v160006ERS4_PS3_m, symObjAddr: 0x1864, symBinAddr: 0x100005584, symSize: 0x34 }
  - { offsetInCU: 0xF55E, offset: 0x22A63, size: 0x8, addend: 0x0, symName: __ZNSt3__16vectorIP6WaiterNS_9allocatorIS2_EEE7__allocB7v160006Ev, symObjAddr: 0x1898, symBinAddr: 0x1000055B8, symSize: 0x28 }
  - { offsetInCU: 0xF583, offset: 0x22A88, size: 0x8, addend: 0x0, symName: __ZNKSt3__16vectorIP6WaiterNS_9allocatorIS2_EEE8capacityB7v160006Ev, symObjAddr: 0x18C0, symBinAddr: 0x1000055E0, symSize: 0x40 }
  - { offsetInCU: 0xF5A8, offset: 0x22AAD, size: 0x8, addend: 0x0, symName: __ZNKSt3__16vectorIP6WaiterNS_9allocatorIS2_EEE31__annotate_contiguous_containerB7v160006EPKvS7_S7_S7_, symObjAddr: 0x1900, symBinAddr: 0x100005620, symSize: 0x20 }
  - { offsetInCU: 0xF5FD, offset: 0x22B02, size: 0x8, addend: 0x0, symName: __ZNKSt3__16vectorIP6WaiterNS_9allocatorIS2_EEE4dataB7v160006Ev, symObjAddr: 0x1920, symBinAddr: 0x100005640, symSize: 0x28 }
  - { offsetInCU: 0xF622, offset: 0x22B27, size: 0x8, addend: 0x0, symName: __ZNKSt3__16vectorIP6WaiterNS_9allocatorIS2_EEE4sizeB7v160006Ev, symObjAddr: 0x1948, symBinAddr: 0x100005668, symSize: 0x28 }
  - { offsetInCU: 0xF647, offset: 0x22B4C, size: 0x8, addend: 0x0, symName: __ZNSt3__16vectorIP6WaiterNS_9allocatorIS2_EEE22__base_destruct_at_endB7v160006EPS2_, symObjAddr: 0x1984, symBinAddr: 0x1000056A4, symSize: 0x8C }
  - { offsetInCU: 0xF68A, offset: 0x22B8F, size: 0x8, addend: 0x0, symName: __ZNSt3__116allocator_traitsINS_9allocatorIP6WaiterEEE7destroyB7v160006IS3_vEEvRS4_PT_, symObjAddr: 0x1A10, symBinAddr: 0x100005730, symSize: 0x2C }
  - { offsetInCU: 0xF6C7, offset: 0x22BCC, size: 0x8, addend: 0x0, symName: __ZNSt3__19allocatorIP6WaiterE7destroyB7v160006EPS2_, symObjAddr: 0x1A3C, symBinAddr: 0x10000575C, symSize: 0x14 }
  - { offsetInCU: 0xF6FA, offset: 0x22BFF, size: 0x8, addend: 0x0, symName: __ZNSt3__19allocatorIP6WaiterE10deallocateB7v160006EPS2_m, symObjAddr: 0x1A50, symBinAddr: 0x100005770, symSize: 0x40 }
  - { offsetInCU: 0xF73B, offset: 0x22C40, size: 0x8, addend: 0x0, symName: __ZNSt3__117__compressed_pairIPP6WaiterNS_9allocatorIS2_EEE6secondB7v160006Ev, symObjAddr: 0x1A90, symBinAddr: 0x1000057B0, symSize: 0x24 }
  - { offsetInCU: 0xF760, offset: 0x22C65, size: 0x8, addend: 0x0, symName: __ZNSt3__122__compressed_pair_elemINS_9allocatorIP6WaiterEELi1ELb1EE5__getB7v160006Ev, symObjAddr: 0x1AB4, symBinAddr: 0x1000057D4, symSize: 0x14 }
  - { offsetInCU: 0xF785, offset: 0x22C8A, size: 0x8, addend: 0x0, symName: __ZNKSt3__16vectorIP6WaiterNS_9allocatorIS2_EEE9__end_capB7v160006Ev, symObjAddr: 0x1AC8, symBinAddr: 0x1000057E8, symSize: 0x28 }
  - { offsetInCU: 0xF7AA, offset: 0x22CAF, size: 0x8, addend: 0x0, symName: __ZNKSt3__117__compressed_pairIPP6WaiterNS_9allocatorIS2_EEE5firstB7v160006Ev, symObjAddr: 0x1AF0, symBinAddr: 0x100005810, symSize: 0x24 }
  - { offsetInCU: 0xF7CF, offset: 0x22CD4, size: 0x8, addend: 0x0, symName: __ZNKSt3__122__compressed_pair_elemIPP6WaiterLi0ELb0EE5__getB7v160006Ev, symObjAddr: 0x1B14, symBinAddr: 0x100005834, symSize: 0x14 }
  - { offsetInCU: 0xF7F4, offset: 0x22CF9, size: 0x8, addend: 0x0, symName: __ZNSt3__16vectorIP6WaiterNS_9allocatorIS2_EEEC2ERKS5_, symObjAddr: 0x1B28, symBinAddr: 0x100005848, symSize: 0x110 }
  - { offsetInCU: 0xF85C, offset: 0x22D61, size: 0x8, addend: 0x0, symName: __ZNSt3__116allocator_traitsINS_9allocatorIP6WaiterEEE37select_on_container_copy_constructionB7v160006IS4_vvEES4_RKS4_, symObjAddr: 0x1C38, symBinAddr: 0x100005958, symSize: 0x10 }
  - { offsetInCU: 0xF88B, offset: 0x22D90, size: 0x8, addend: 0x0, symName: __ZNKSt3__16vectorIP6WaiterNS_9allocatorIS2_EEE7__allocB7v160006Ev, symObjAddr: 0x1C48, symBinAddr: 0x100005968, symSize: 0x28 }
  - { offsetInCU: 0xF8B5, offset: 0x22DBA, size: 0x8, addend: 0x0, symName: __ZNSt3__117__compressed_pairIPP6WaiterNS_9allocatorIS2_EEEC1B7v160006IDnS5_EEOT_OT0_, symObjAddr: 0x1C70, symBinAddr: 0x100005990, symSize: 0x3C }
  - { offsetInCU: 0xF90B, offset: 0x22E10, size: 0x8, addend: 0x0, symName: __ZNSt3__16vectorIP6WaiterNS_9allocatorIS2_EEE11__vallocateB7v160006Em, symObjAddr: 0x1CEC, symBinAddr: 0x100005A0C, symSize: 0xAC }
  - { offsetInCU: 0xF94D, offset: 0x22E52, size: 0x8, addend: 0x0, symName: __ZNSt3__16vectorIP6WaiterNS_9allocatorIS2_EEE18__construct_at_endIPS2_Li0EEEvT_S8_m, symObjAddr: 0x1D98, symBinAddr: 0x100005AB8, symSize: 0x8C }
  - { offsetInCU: 0xF9C0, offset: 0x22EC5, size: 0x8, addend: 0x0, symName: __ZNSt3__128__exception_guard_exceptionsINS_6vectorIP6WaiterNS_9allocatorIS3_EEE16__destroy_vectorEE10__completeB7v160006Ev, symObjAddr: 0x1E24, symBinAddr: 0x100005B44, symSize: 0x1C }
  - { offsetInCU: 0xF9E5, offset: 0x22EEA, size: 0x8, addend: 0x0, symName: __ZNSt3__128__exception_guard_exceptionsINS_6vectorIP6WaiterNS_9allocatorIS3_EEE16__destroy_vectorEED1B7v160006Ev, symObjAddr: 0x1E40, symBinAddr: 0x100005B60, symSize: 0x2C }
  - { offsetInCU: 0xFA0D, offset: 0x22F12, size: 0x8, addend: 0x0, symName: __ZNKSt3__117__compressed_pairIPP6WaiterNS_9allocatorIS2_EEE6secondB7v160006Ev, symObjAddr: 0x1E6C, symBinAddr: 0x100005B8C, symSize: 0x24 }
  - { offsetInCU: 0xFA32, offset: 0x22F37, size: 0x8, addend: 0x0, symName: __ZNKSt3__122__compressed_pair_elemINS_9allocatorIP6WaiterEELi1ELb1EE5__getB7v160006Ev, symObjAddr: 0x1E90, symBinAddr: 0x100005BB0, symSize: 0x14 }
  - { offsetInCU: 0xFA57, offset: 0x22F5C, size: 0x8, addend: 0x0, symName: __ZNSt3__117__compressed_pairIPP6WaiterNS_9allocatorIS2_EEEC2B7v160006IDnS5_EEOT_OT0_, symObjAddr: 0x1EA4, symBinAddr: 0x100005BC4, symSize: 0x44 }
  - { offsetInCU: 0xFAAD, offset: 0x22FB2, size: 0x8, addend: 0x0, symName: __ZNSt3__122__compressed_pair_elemINS_9allocatorIP6WaiterEELi1ELb1EEC2B7v160006IS4_vEEOT_, symObjAddr: 0x1EE8, symBinAddr: 0x100005C08, symSize: 0x18 }
  - { offsetInCU: 0xFAED, offset: 0x22FF2, size: 0x8, addend: 0x0, symName: __ZNSt3__128__exception_guard_exceptionsINS_6vectorIP6WaiterNS_9allocatorIS3_EEE16__destroy_vectorEEC1B7v160006ES7_, symObjAddr: 0x1F00, symBinAddr: 0x100005C20, symSize: 0x34 }
  - { offsetInCU: 0xFB23, offset: 0x23028, size: 0x8, addend: 0x0, symName: __ZNSt3__128__exception_guard_exceptionsINS_6vectorIP6WaiterNS_9allocatorIS3_EEE16__destroy_vectorEEC2B7v160006ES7_, symObjAddr: 0x1F34, symBinAddr: 0x100005C54, symSize: 0x24 }
  - { offsetInCU: 0xFB58, offset: 0x2305D, size: 0x8, addend: 0x0, symName: __ZNKSt3__16vectorIP6WaiterNS_9allocatorIS2_EEE8max_sizeEv, symObjAddr: 0x1F58, symBinAddr: 0x100005C78, symSize: 0x60 }
  - { offsetInCU: 0xFB80, offset: 0x23085, size: 0x8, addend: 0x0, symName: __ZNKSt3__16vectorIP6WaiterNS_9allocatorIS2_EEE20__throw_length_errorB7v160006Ev, symObjAddr: 0x1FB8, symBinAddr: 0x100005CD8, symSize: 0x1C }
  - { offsetInCU: 0xFBA5, offset: 0x230AA, size: 0x8, addend: 0x0, symName: __ZNSt3__16vectorIP6WaiterNS_9allocatorIS2_EEE9__end_capB7v160006Ev, symObjAddr: 0x2014, symBinAddr: 0x100005D34, symSize: 0x28 }
  - { offsetInCU: 0xFBCA, offset: 0x230CF, size: 0x8, addend: 0x0, symName: __ZNKSt3__16vectorIP6WaiterNS_9allocatorIS2_EEE14__annotate_newB7v160006Em, symObjAddr: 0x203C, symBinAddr: 0x100005D5C, symSize: 0xAC }
  - { offsetInCU: 0xFBFE, offset: 0x23103, size: 0x8, addend: 0x0, symName: __ZNSt3__116allocator_traitsINS_9allocatorIP6WaiterEEE8max_sizeB7v160006IS4_vEEmRKS4_, symObjAddr: 0x2114, symBinAddr: 0x100005E34, symSize: 0x24 }
  - { offsetInCU: 0xFC2C, offset: 0x23131, size: 0x8, addend: 0x0, symName: __ZNSt3__114numeric_limitsIlE3maxB7v160006Ev, symObjAddr: 0x2138, symBinAddr: 0x100005E58, symSize: 0x14 }
  - { offsetInCU: 0xFC54, offset: 0x23159, size: 0x8, addend: 0x0, symName: __ZNKSt3__16__lessImmEclB7v160006ERKmS3_, symObjAddr: 0x21A0, symBinAddr: 0x100005EC0, symSize: 0x34 }
  - { offsetInCU: 0xFC95, offset: 0x2319A, size: 0x8, addend: 0x0, symName: __ZNKSt3__19allocatorIP6WaiterE8max_sizeB7v160006Ev, symObjAddr: 0x21D4, symBinAddr: 0x100005EF4, symSize: 0x14 }
  - { offsetInCU: 0xFCBA, offset: 0x231BF, size: 0x8, addend: 0x0, symName: __ZNSt3__123__libcpp_numeric_limitsIlLb1EE3maxB7v160006Ev, symObjAddr: 0x21E8, symBinAddr: 0x100005F08, symSize: 0x8 }
  - { offsetInCU: 0xFCCE, offset: 0x231D3, size: 0x8, addend: 0x0, symName: __ZNSt12length_errorC1B7v160006EPKc, symObjAddr: 0x2254, symBinAddr: 0x100005F74, symSize: 0x34 }
  - { offsetInCU: 0xFD04, offset: 0x23209, size: 0x8, addend: 0x0, symName: __ZNSt12length_errorC2B7v160006EPKc, symObjAddr: 0x2288, symBinAddr: 0x100005FA8, symSize: 0x4C }
  - { offsetInCU: 0xFD3A, offset: 0x2323F, size: 0x8, addend: 0x0, symName: __ZNSt3__19allocatorIP6WaiterE8allocateB7v160006Em, symObjAddr: 0x22D4, symBinAddr: 0x100005FF4, symSize: 0x58 }
  - { offsetInCU: 0xFD6D, offset: 0x23272, size: 0x8, addend: 0x0, symName: __ZNSt3__117__compressed_pairIPP6WaiterNS_9allocatorIS2_EEE5firstB7v160006Ev, symObjAddr: 0x23AC, symBinAddr: 0x1000060CC, symSize: 0x24 }
  - { offsetInCU: 0xFD92, offset: 0x23297, size: 0x8, addend: 0x0, symName: __ZNSt3__122__compressed_pair_elemIPP6WaiterLi0ELb0EE5__getB7v160006Ev, symObjAddr: 0x23D0, symBinAddr: 0x1000060F0, symSize: 0x14 }
  - { offsetInCU: 0xFDD0, offset: 0x232D5, size: 0x8, addend: 0x0, symName: __ZNSt3__16vectorIP6WaiterNS_9allocatorIS2_EEE21_ConstructTransactionC1B7v160006ERS5_m, symObjAddr: 0x23E4, symBinAddr: 0x100006104, symSize: 0x3C }
  - { offsetInCU: 0xFE16, offset: 0x2331B, size: 0x8, addend: 0x0, symName: __ZNSt3__16vectorIP6WaiterNS_9allocatorIS2_EEE21_ConstructTransactionD1B7v160006Ev, symObjAddr: 0x2514, symBinAddr: 0x100006234, symSize: 0x2C }
  - { offsetInCU: 0xFE3E, offset: 0x23343, size: 0x8, addend: 0x0, symName: __ZNSt3__16vectorIP6WaiterNS_9allocatorIS2_EEE21_ConstructTransactionC2B7v160006ERS5_m, symObjAddr: 0x2540, symBinAddr: 0x100006260, symSize: 0x44 }
  - { offsetInCU: 0xFE84, offset: 0x23389, size: 0x8, addend: 0x0, symName: __ZNSt3__129_AllocatorDestroyRangeReverseINS_9allocatorIP6WaiterEEPS3_EC1B7v160006ERS4_RS5_S8_, symObjAddr: 0x25D0, symBinAddr: 0x1000062F0, symSize: 0x44 }
  - { offsetInCU: 0xFED9, offset: 0x233DE, size: 0x8, addend: 0x0, symName: __ZNSt3__116allocator_traitsINS_9allocatorIP6WaiterEEE9constructB7v160006IS3_JRS3_EvEEvRS4_PT_DpOT0_, symObjAddr: 0x2614, symBinAddr: 0x100006334, symSize: 0x34 }
  - { offsetInCU: 0xFF30, offset: 0x23435, size: 0x8, addend: 0x0, symName: __ZNSt3__128__exception_guard_exceptionsINS_29_AllocatorDestroyRangeReverseINS_9allocatorIP6WaiterEEPS4_EEE10__completeB7v160006Ev, symObjAddr: 0x2648, symBinAddr: 0x100006368, symSize: 0x1C }
  - { offsetInCU: 0xFF55, offset: 0x2345A, size: 0x8, addend: 0x0, symName: __ZNSt3__128__exception_guard_exceptionsINS_29_AllocatorDestroyRangeReverseINS_9allocatorIP6WaiterEEPS4_EEED1B7v160006Ev, symObjAddr: 0x2664, symBinAddr: 0x100006384, symSize: 0x2C }
  - { offsetInCU: 0xFF7D, offset: 0x23482, size: 0x8, addend: 0x0, symName: __ZNSt3__128__exception_guard_exceptionsINS_29_AllocatorDestroyRangeReverseINS_9allocatorIP6WaiterEEPS4_EEEC1B7v160006ES7_, symObjAddr: 0x2690, symBinAddr: 0x1000063B0, symSize: 0x34 }
  - { offsetInCU: 0xFFB4, offset: 0x234B9, size: 0x8, addend: 0x0, symName: __ZNSt3__128__exception_guard_exceptionsINS_29_AllocatorDestroyRangeReverseINS_9allocatorIP6WaiterEEPS4_EEEC2B7v160006ES7_, symObjAddr: 0x26C4, symBinAddr: 0x1000063E4, symSize: 0x30 }
  - { offsetInCU: 0xFFEB, offset: 0x234F0, size: 0x8, addend: 0x0, symName: __ZNSt3__129_AllocatorDestroyRangeReverseINS_9allocatorIP6WaiterEEPS3_EC2B7v160006ERS4_RS5_S8_, symObjAddr: 0x26F4, symBinAddr: 0x100006414, symSize: 0x38 }
  - { offsetInCU: 0x10040, offset: 0x23545, size: 0x8, addend: 0x0, symName: __ZNSt3__19allocatorIP6WaiterE9constructB7v160006IS2_JRS2_EEEvPT_DpOT0_, symObjAddr: 0x272C, symBinAddr: 0x10000644C, symSize: 0x28 }
  - { offsetInCU: 0x10095, offset: 0x2359A, size: 0x8, addend: 0x0, symName: __ZNSt3__128__exception_guard_exceptionsINS_29_AllocatorDestroyRangeReverseINS_9allocatorIP6WaiterEEPS4_EEED2B7v160006Ev, symObjAddr: 0x2754, symBinAddr: 0x100006474, symSize: 0x50 }
  - { offsetInCU: 0x100BD, offset: 0x235C2, size: 0x8, addend: 0x0, symName: __ZNKSt3__129_AllocatorDestroyRangeReverseINS_9allocatorIP6WaiterEEPS3_EclB7v160006Ev, symObjAddr: 0x27A4, symBinAddr: 0x1000064C4, symSize: 0x68 }
  - { offsetInCU: 0x100E2, offset: 0x235E7, size: 0x8, addend: 0x0, symName: __ZNSt3__116reverse_iteratorIPP6WaiterEC1B7v160006ES3_, symObjAddr: 0x287C, symBinAddr: 0x10000659C, symSize: 0x34 }
  - { offsetInCU: 0x10118, offset: 0x2361D, size: 0x8, addend: 0x0, symName: __ZNSt3__116reverse_iteratorIPP6WaiterEppB7v160006Ev, symObjAddr: 0x291C, symBinAddr: 0x10000663C, symSize: 0x20 }
  - { offsetInCU: 0x1013D, offset: 0x23642, size: 0x8, addend: 0x0, symName: __ZNKSt3__116reverse_iteratorIPP6WaiterE4baseB7v160006Ev, symObjAddr: 0x293C, symBinAddr: 0x10000665C, symSize: 0x18 }
  - { offsetInCU: 0x10167, offset: 0x2366C, size: 0x8, addend: 0x0, symName: __ZNSt3__119__to_address_helperINS_16reverse_iteratorIPP6WaiterEEvE6__callB7v160006ERKS5_, symObjAddr: 0x2954, symBinAddr: 0x100006674, symSize: 0x38 }
  - { offsetInCU: 0x1018A, offset: 0x2368F, size: 0x8, addend: 0x0, symName: __ZNKSt3__116reverse_iteratorIPP6WaiterEptB7v160006Ev, symObjAddr: 0x298C, symBinAddr: 0x1000066AC, symSize: 0x24 }
  - { offsetInCU: 0x101AF, offset: 0x236B4, size: 0x8, addend: 0x0, symName: __ZNKSt3__116reverse_iteratorIPP6WaiterEdeB7v160006Ev, symObjAddr: 0x29B0, symBinAddr: 0x1000066D0, symSize: 0x28 }
  - { offsetInCU: 0x101E3, offset: 0x236E8, size: 0x8, addend: 0x0, symName: __ZNSt3__116reverse_iteratorIPP6WaiterEC2B7v160006ES3_, symObjAddr: 0x29D8, symBinAddr: 0x1000066F8, symSize: 0x28 }
  - { offsetInCU: 0x10219, offset: 0x2371E, size: 0x8, addend: 0x0, symName: __ZNSt3__16vectorIP6WaiterNS_9allocatorIS2_EEE21_ConstructTransactionD2B7v160006Ev, symObjAddr: 0x2A00, symBinAddr: 0x100006720, symSize: 0x20 }
  - { offsetInCU: 0x10241, offset: 0x23746, size: 0x8, addend: 0x0, symName: __ZNSt3__128__exception_guard_exceptionsINS_6vectorIP6WaiterNS_9allocatorIS3_EEE16__destroy_vectorEED2B7v160006Ev, symObjAddr: 0x2A20, symBinAddr: 0x100006740, symSize: 0x50 }
  - { offsetInCU: 0x10269, offset: 0x2376E, size: 0x8, addend: 0x0, symName: __ZNSt3__16vectorIP15RestaurantTableNS_9allocatorIS2_EEEC2ERKS5_, symObjAddr: 0x2A70, symBinAddr: 0x100006790, symSize: 0x110 }
  - { offsetInCU: 0x102D1, offset: 0x237D6, size: 0x8, addend: 0x0, symName: __ZNSt3__116allocator_traitsINS_9allocatorIP15RestaurantTableEEE37select_on_container_copy_constructionB7v160006IS4_vvEES4_RKS4_, symObjAddr: 0x2B80, symBinAddr: 0x1000068A0, symSize: 0x10 }
  - { offsetInCU: 0x10300, offset: 0x23805, size: 0x8, addend: 0x0, symName: __ZNKSt3__16vectorIP15RestaurantTableNS_9allocatorIS2_EEE7__allocB7v160006Ev, symObjAddr: 0x2B90, symBinAddr: 0x1000068B0, symSize: 0x28 }
  - { offsetInCU: 0x1032A, offset: 0x2382F, size: 0x8, addend: 0x0, symName: __ZNSt3__117__compressed_pairIPP15RestaurantTableNS_9allocatorIS2_EEEC1B7v160006IDnS5_EEOT_OT0_, symObjAddr: 0x2BB8, symBinAddr: 0x1000068D8, symSize: 0x3C }
  - { offsetInCU: 0x10380, offset: 0x23885, size: 0x8, addend: 0x0, symName: __ZNSt3__16vectorIP15RestaurantTableNS_9allocatorIS2_EEE11__vallocateB7v160006Em, symObjAddr: 0x2C34, symBinAddr: 0x100006954, symSize: 0xAC }
  - { offsetInCU: 0x103C2, offset: 0x238C7, size: 0x8, addend: 0x0, symName: __ZNSt3__16vectorIP15RestaurantTableNS_9allocatorIS2_EEE18__construct_at_endIPS2_Li0EEEvT_S8_m, symObjAddr: 0x2CE0, symBinAddr: 0x100006A00, symSize: 0x8C }
  - { offsetInCU: 0x10435, offset: 0x2393A, size: 0x8, addend: 0x0, symName: __ZNSt3__128__exception_guard_exceptionsINS_6vectorIP15RestaurantTableNS_9allocatorIS3_EEE16__destroy_vectorEE10__completeB7v160006Ev, symObjAddr: 0x2D6C, symBinAddr: 0x100006A8C, symSize: 0x1C }
  - { offsetInCU: 0x1045A, offset: 0x2395F, size: 0x8, addend: 0x0, symName: __ZNSt3__128__exception_guard_exceptionsINS_6vectorIP15RestaurantTableNS_9allocatorIS3_EEE16__destroy_vectorEED1B7v160006Ev, symObjAddr: 0x2D88, symBinAddr: 0x100006AA8, symSize: 0x2C }
  - { offsetInCU: 0x10482, offset: 0x23987, size: 0x8, addend: 0x0, symName: __ZNKSt3__117__compressed_pairIPP15RestaurantTableNS_9allocatorIS2_EEE6secondB7v160006Ev, symObjAddr: 0x2DB4, symBinAddr: 0x100006AD4, symSize: 0x24 }
  - { offsetInCU: 0x104A7, offset: 0x239AC, size: 0x8, addend: 0x0, symName: __ZNKSt3__122__compressed_pair_elemINS_9allocatorIP15RestaurantTableEELi1ELb1EE5__getB7v160006Ev, symObjAddr: 0x2DD8, symBinAddr: 0x100006AF8, symSize: 0x14 }
  - { offsetInCU: 0x104CC, offset: 0x239D1, size: 0x8, addend: 0x0, symName: __ZNSt3__117__compressed_pairIPP15RestaurantTableNS_9allocatorIS2_EEEC2B7v160006IDnS5_EEOT_OT0_, symObjAddr: 0x2DEC, symBinAddr: 0x100006B0C, symSize: 0x44 }
  - { offsetInCU: 0x10522, offset: 0x23A27, size: 0x8, addend: 0x0, symName: __ZNSt3__122__compressed_pair_elemINS_9allocatorIP15RestaurantTableEELi1ELb1EEC2B7v160006IS4_vEEOT_, symObjAddr: 0x2E30, symBinAddr: 0x100006B50, symSize: 0x18 }
  - { offsetInCU: 0x10562, offset: 0x23A67, size: 0x8, addend: 0x0, symName: __ZNSt3__128__exception_guard_exceptionsINS_6vectorIP15RestaurantTableNS_9allocatorIS3_EEE16__destroy_vectorEEC1B7v160006ES7_, symObjAddr: 0x2E48, symBinAddr: 0x100006B68, symSize: 0x34 }
  - { offsetInCU: 0x10598, offset: 0x23A9D, size: 0x8, addend: 0x0, symName: __ZNSt3__128__exception_guard_exceptionsINS_6vectorIP15RestaurantTableNS_9allocatorIS3_EEE16__destroy_vectorEEC2B7v160006ES7_, symObjAddr: 0x2E7C, symBinAddr: 0x100006B9C, symSize: 0x24 }
  - { offsetInCU: 0x105CD, offset: 0x23AD2, size: 0x8, addend: 0x0, symName: __ZNKSt3__16vectorIP15RestaurantTableNS_9allocatorIS2_EEE8max_sizeEv, symObjAddr: 0x2EA0, symBinAddr: 0x100006BC0, symSize: 0x60 }
  - { offsetInCU: 0x105F5, offset: 0x23AFA, size: 0x8, addend: 0x0, symName: __ZNKSt3__16vectorIP15RestaurantTableNS_9allocatorIS2_EEE20__throw_length_errorB7v160006Ev, symObjAddr: 0x2F00, symBinAddr: 0x100006C20, symSize: 0x1C }
  - { offsetInCU: 0x1061A, offset: 0x23B1F, size: 0x8, addend: 0x0, symName: __ZNSt3__16vectorIP15RestaurantTableNS_9allocatorIS2_EEE9__end_capB7v160006Ev, symObjAddr: 0x2F5C, symBinAddr: 0x100006C7C, symSize: 0x28 }
  - { offsetInCU: 0x1063F, offset: 0x23B44, size: 0x8, addend: 0x0, symName: __ZNKSt3__16vectorIP15RestaurantTableNS_9allocatorIS2_EEE14__annotate_newB7v160006Em, symObjAddr: 0x2F84, symBinAddr: 0x100006CA4, symSize: 0xAC }
  - { offsetInCU: 0x10673, offset: 0x23B78, size: 0x8, addend: 0x0, symName: __ZNSt3__116allocator_traitsINS_9allocatorIP15RestaurantTableEEE8max_sizeB7v160006IS4_vEEmRKS4_, symObjAddr: 0x3030, symBinAddr: 0x100006D50, symSize: 0x24 }
  - { offsetInCU: 0x106A1, offset: 0x23BA6, size: 0x8, addend: 0x0, symName: __ZNKSt3__19allocatorIP15RestaurantTableE8max_sizeB7v160006Ev, symObjAddr: 0x3054, symBinAddr: 0x100006D74, symSize: 0x14 }
  - { offsetInCU: 0x106C6, offset: 0x23BCB, size: 0x8, addend: 0x0, symName: __ZNSt3__19allocatorIP15RestaurantTableE8allocateB7v160006Em, symObjAddr: 0x3068, symBinAddr: 0x100006D88, symSize: 0x58 }
  - { offsetInCU: 0x106F9, offset: 0x23BFE, size: 0x8, addend: 0x0, symName: __ZNSt3__117__compressed_pairIPP15RestaurantTableNS_9allocatorIS2_EEE5firstB7v160006Ev, symObjAddr: 0x30C0, symBinAddr: 0x100006DE0, symSize: 0x24 }
  - { offsetInCU: 0x1071E, offset: 0x23C23, size: 0x8, addend: 0x0, symName: __ZNSt3__122__compressed_pair_elemIPP15RestaurantTableLi0ELb0EE5__getB7v160006Ev, symObjAddr: 0x30E4, symBinAddr: 0x100006E04, symSize: 0x14 }
  - { offsetInCU: 0x1075C, offset: 0x23C61, size: 0x8, addend: 0x0, symName: __ZNSt3__16vectorIP15RestaurantTableNS_9allocatorIS2_EEE21_ConstructTransactionC1B7v160006ERS5_m, symObjAddr: 0x30F8, symBinAddr: 0x100006E18, symSize: 0x3C }
  - { offsetInCU: 0x107A2, offset: 0x23CA7, size: 0x8, addend: 0x0, symName: __ZNSt3__16vectorIP15RestaurantTableNS_9allocatorIS2_EEE21_ConstructTransactionD1B7v160006Ev, symObjAddr: 0x3228, symBinAddr: 0x100006F48, symSize: 0x2C }
  - { offsetInCU: 0x107CA, offset: 0x23CCF, size: 0x8, addend: 0x0, symName: __ZNSt3__16vectorIP15RestaurantTableNS_9allocatorIS2_EEE21_ConstructTransactionC2B7v160006ERS5_m, symObjAddr: 0x3254, symBinAddr: 0x100006F74, symSize: 0x44 }
  - { offsetInCU: 0x10810, offset: 0x23D15, size: 0x8, addend: 0x0, symName: __ZNSt3__129_AllocatorDestroyRangeReverseINS_9allocatorIP15RestaurantTableEEPS3_EC1B7v160006ERS4_RS5_S8_, symObjAddr: 0x32E4, symBinAddr: 0x100007004, symSize: 0x44 }
  - { offsetInCU: 0x10865, offset: 0x23D6A, size: 0x8, addend: 0x0, symName: __ZNSt3__116allocator_traitsINS_9allocatorIP15RestaurantTableEEE9constructB7v160006IS3_JRS3_EvEEvRS4_PT_DpOT0_, symObjAddr: 0x3328, symBinAddr: 0x100007048, symSize: 0x34 }
  - { offsetInCU: 0x108BC, offset: 0x23DC1, size: 0x8, addend: 0x0, symName: __ZNSt3__128__exception_guard_exceptionsINS_29_AllocatorDestroyRangeReverseINS_9allocatorIP15RestaurantTableEEPS4_EEE10__completeB7v160006Ev, symObjAddr: 0x335C, symBinAddr: 0x10000707C, symSize: 0x1C }
  - { offsetInCU: 0x108E1, offset: 0x23DE6, size: 0x8, addend: 0x0, symName: __ZNSt3__128__exception_guard_exceptionsINS_29_AllocatorDestroyRangeReverseINS_9allocatorIP15RestaurantTableEEPS4_EEED1B7v160006Ev, symObjAddr: 0x3378, symBinAddr: 0x100007098, symSize: 0x2C }
  - { offsetInCU: 0x10909, offset: 0x23E0E, size: 0x8, addend: 0x0, symName: __ZNSt3__128__exception_guard_exceptionsINS_29_AllocatorDestroyRangeReverseINS_9allocatorIP15RestaurantTableEEPS4_EEEC1B7v160006ES7_, symObjAddr: 0x33A4, symBinAddr: 0x1000070C4, symSize: 0x34 }
  - { offsetInCU: 0x10940, offset: 0x23E45, size: 0x8, addend: 0x0, symName: __ZNSt3__128__exception_guard_exceptionsINS_29_AllocatorDestroyRangeReverseINS_9allocatorIP15RestaurantTableEEPS4_EEEC2B7v160006ES7_, symObjAddr: 0x33D8, symBinAddr: 0x1000070F8, symSize: 0x30 }
  - { offsetInCU: 0x10977, offset: 0x23E7C, size: 0x8, addend: 0x0, symName: __ZNSt3__129_AllocatorDestroyRangeReverseINS_9allocatorIP15RestaurantTableEEPS3_EC2B7v160006ERS4_RS5_S8_, symObjAddr: 0x3408, symBinAddr: 0x100007128, symSize: 0x38 }
  - { offsetInCU: 0x109CC, offset: 0x23ED1, size: 0x8, addend: 0x0, symName: __ZNSt3__19allocatorIP15RestaurantTableE9constructB7v160006IS2_JRS2_EEEvPT_DpOT0_, symObjAddr: 0x3440, symBinAddr: 0x100007160, symSize: 0x28 }
  - { offsetInCU: 0x10A21, offset: 0x23F26, size: 0x8, addend: 0x0, symName: __ZNSt3__128__exception_guard_exceptionsINS_29_AllocatorDestroyRangeReverseINS_9allocatorIP15RestaurantTableEEPS4_EEED2B7v160006Ev, symObjAddr: 0x3468, symBinAddr: 0x100007188, symSize: 0x50 }
  - { offsetInCU: 0x10A49, offset: 0x23F4E, size: 0x8, addend: 0x0, symName: __ZNKSt3__129_AllocatorDestroyRangeReverseINS_9allocatorIP15RestaurantTableEEPS3_EclB7v160006Ev, symObjAddr: 0x34B8, symBinAddr: 0x1000071D8, symSize: 0x68 }
  - { offsetInCU: 0x10A6E, offset: 0x23F73, size: 0x8, addend: 0x0, symName: __ZNSt3__116reverse_iteratorIPP15RestaurantTableEC1B7v160006ES3_, symObjAddr: 0x3590, symBinAddr: 0x1000072B0, symSize: 0x34 }
  - { offsetInCU: 0x10AA4, offset: 0x23FA9, size: 0x8, addend: 0x0, symName: __ZNSt3__116reverse_iteratorIPP15RestaurantTableEppB7v160006Ev, symObjAddr: 0x3630, symBinAddr: 0x100007350, symSize: 0x20 }
  - { offsetInCU: 0x10AC9, offset: 0x23FCE, size: 0x8, addend: 0x0, symName: __ZNKSt3__116reverse_iteratorIPP15RestaurantTableE4baseB7v160006Ev, symObjAddr: 0x3650, symBinAddr: 0x100007370, symSize: 0x18 }
  - { offsetInCU: 0x10AF3, offset: 0x23FF8, size: 0x8, addend: 0x0, symName: __ZNSt3__119__to_address_helperINS_16reverse_iteratorIPP15RestaurantTableEEvE6__callB7v160006ERKS5_, symObjAddr: 0x3668, symBinAddr: 0x100007388, symSize: 0x38 }
  - { offsetInCU: 0x10B16, offset: 0x2401B, size: 0x8, addend: 0x0, symName: __ZNKSt3__116reverse_iteratorIPP15RestaurantTableEptB7v160006Ev, symObjAddr: 0x36A0, symBinAddr: 0x1000073C0, symSize: 0x24 }
  - { offsetInCU: 0x10B3B, offset: 0x24040, size: 0x8, addend: 0x0, symName: __ZNKSt3__116reverse_iteratorIPP15RestaurantTableEdeB7v160006Ev, symObjAddr: 0x36C4, symBinAddr: 0x1000073E4, symSize: 0x28 }
  - { offsetInCU: 0x10B6F, offset: 0x24074, size: 0x8, addend: 0x0, symName: __ZNSt3__116reverse_iteratorIPP15RestaurantTableEC2B7v160006ES3_, symObjAddr: 0x36EC, symBinAddr: 0x10000740C, symSize: 0x28 }
  - { offsetInCU: 0x10BA5, offset: 0x240AA, size: 0x8, addend: 0x0, symName: __ZNSt3__16vectorIP15RestaurantTableNS_9allocatorIS2_EEE21_ConstructTransactionD2B7v160006Ev, symObjAddr: 0x3714, symBinAddr: 0x100007434, symSize: 0x20 }
  - { offsetInCU: 0x10BCD, offset: 0x240D2, size: 0x8, addend: 0x0, symName: __ZNSt3__128__exception_guard_exceptionsINS_6vectorIP15RestaurantTableNS_9allocatorIS3_EEE16__destroy_vectorEED2B7v160006Ev, symObjAddr: 0x3734, symBinAddr: 0x100007454, symSize: 0x50 }
  - { offsetInCU: 0x10BF5, offset: 0x240FA, size: 0x8, addend: 0x0, symName: __ZNSt3__112basic_stringIcNS_11char_traitsIcEENS_9allocatorIcEEEC2B7v160006IDnEEPKc, symObjAddr: 0x3784, symBinAddr: 0x1000074A4, symSize: 0x60 }
  - { offsetInCU: 0x10C31, offset: 0x24136, size: 0x8, addend: 0x0, symName: __ZNSt3__117__compressed_pairINS_12basic_stringIcNS_11char_traitsIcEENS_9allocatorIcEEE5__repES5_EC1B7v160006INS_18__default_init_tagESA_EEOT_OT0_, symObjAddr: 0x37E4, symBinAddr: 0x100007504, symSize: 0x3C }
  - { offsetInCU: 0x10C87, offset: 0x2418C, size: 0x8, addend: 0x0, symName: __ZNSt3__111char_traitsIcE6lengthEPKc, symObjAddr: 0x3820, symBinAddr: 0x100007540, symSize: 0x34 }
  - { offsetInCU: 0x10CAA, offset: 0x241AF, size: 0x8, addend: 0x0, symName: __ZNSt3__117__compressed_pairINS_12basic_stringIcNS_11char_traitsIcEENS_9allocatorIcEEE5__repES5_EC2B7v160006INS_18__default_init_tagESA_EEOT_OT0_, symObjAddr: 0x3864, symBinAddr: 0x100007584, symSize: 0x3C }
  - { offsetInCU: 0x10D00, offset: 0x24205, size: 0x8, addend: 0x0, symName: __ZNSt3__122__compressed_pair_elemINS_12basic_stringIcNS_11char_traitsIcEENS_9allocatorIcEEE5__repELi0ELb0EEC2B7v160006ENS_18__default_init_tagE, symObjAddr: 0x38A0, symBinAddr: 0x1000075C0, symSize: 0x14 }
  - { offsetInCU: 0x10D32, offset: 0x24237, size: 0x8, addend: 0x0, symName: __ZNSt3__122__compressed_pair_elemINS_9allocatorIcEELi1ELb1EEC2B7v160006ENS_18__default_init_tagE, symObjAddr: 0x38B4, symBinAddr: 0x1000075D4, symSize: 0x2C }
  - { offsetInCU: 0x10D64, offset: 0x24269, size: 0x8, addend: 0x0, symName: __ZNSt3__19allocatorIcEC2B7v160006Ev, symObjAddr: 0x38E0, symBinAddr: 0x100007600, symSize: 0x2C }
  - { offsetInCU: 0x10D8C, offset: 0x24291, size: 0x8, addend: 0x0, symName: __ZNSt3__116__non_trivial_ifILb1ENS_9allocatorIcEEEC2B7v160006Ev, symObjAddr: 0x390C, symBinAddr: 0x10000762C, symSize: 0x14 }
  - { offsetInCU: 0x10DB9, offset: 0x242BE, size: 0x8, addend: 0x0, symName: __ZNSt3__16vectorIP6WaiterNS_9allocatorIS2_EEE22__construct_one_at_endB7v160006IJS2_EEEvDpOT_, symObjAddr: 0x3944, symBinAddr: 0x100007664, symSize: 0x90 }
  - { offsetInCU: 0x10E06, offset: 0x2430B, size: 0x8, addend: 0x0, symName: __ZNSt3__16vectorIP6WaiterNS_9allocatorIS2_EEE21__push_back_slow_pathIS2_EEvOT_, symObjAddr: 0x39D4, symBinAddr: 0x1000076F4, symSize: 0xD8 }
  - { offsetInCU: 0x10E64, offset: 0x24369, size: 0x8, addend: 0x0, symName: __ZNSt3__116allocator_traitsINS_9allocatorIP6WaiterEEE9constructB7v160006IS3_JS3_EvEEvRS4_PT_DpOT0_, symObjAddr: 0x3AAC, symBinAddr: 0x1000077CC, symSize: 0x34 }
  - { offsetInCU: 0x10EBB, offset: 0x243C0, size: 0x8, addend: 0x0, symName: __ZNSt3__19allocatorIP6WaiterE9constructB7v160006IS2_JS2_EEEvPT_DpOT0_, symObjAddr: 0x3AE0, symBinAddr: 0x100007800, symSize: 0x28 }
  - { offsetInCU: 0x10F0F, offset: 0x24414, size: 0x8, addend: 0x0, symName: __ZNKSt3__16vectorIP6WaiterNS_9allocatorIS2_EEE11__recommendB7v160006Em, symObjAddr: 0x3B08, symBinAddr: 0x100007828, symSize: 0xB4 }
  - { offsetInCU: 0x10F64, offset: 0x24469, size: 0x8, addend: 0x0, symName: __ZNSt3__114__split_bufferIP6WaiterRNS_9allocatorIS2_EEEC1EmmS5_, symObjAddr: 0x3BBC, symBinAddr: 0x1000078DC, symSize: 0x44 }
  - { offsetInCU: 0x10FB9, offset: 0x244BE, size: 0x8, addend: 0x0, symName: __ZNSt3__114__split_bufferIP6WaiterRNS_9allocatorIS2_EEED1Ev, symObjAddr: 0x3D18, symBinAddr: 0x100007A38, symSize: 0x2C }
  - { offsetInCU: 0x10FE4, offset: 0x244E9, size: 0x8, addend: 0x0, symName: __ZNSt3__114__split_bufferIP6WaiterRNS_9allocatorIS2_EEEC2EmmS5_, symObjAddr: 0x3DC4, symBinAddr: 0x100007AE4, symSize: 0xD4 }
  - { offsetInCU: 0x11057, offset: 0x2455C, size: 0x8, addend: 0x0, symName: __ZNSt3__117__compressed_pairIPP6WaiterRNS_9allocatorIS2_EEEC1B7v160006IDnS6_EEOT_OT0_, symObjAddr: 0x3E98, symBinAddr: 0x100007BB8, symSize: 0x3C }
  - { offsetInCU: 0x110AD, offset: 0x245B2, size: 0x8, addend: 0x0, symName: __ZNSt3__114__split_bufferIP6WaiterRNS_9allocatorIS2_EEE7__allocB7v160006Ev, symObjAddr: 0x3ED4, symBinAddr: 0x100007BF4, symSize: 0x28 }
  - { offsetInCU: 0x110D2, offset: 0x245D7, size: 0x8, addend: 0x0, symName: __ZNSt3__114__split_bufferIP6WaiterRNS_9allocatorIS2_EEE9__end_capB7v160006Ev, symObjAddr: 0x3EFC, symBinAddr: 0x100007C1C, symSize: 0x28 }
  - { offsetInCU: 0x110F7, offset: 0x245FC, size: 0x8, addend: 0x0, symName: __ZNSt3__117__compressed_pairIPP6WaiterRNS_9allocatorIS2_EEEC2B7v160006IDnS6_EEOT_OT0_, symObjAddr: 0x3F24, symBinAddr: 0x100007C44, symSize: 0x48 }
  - { offsetInCU: 0x1114D, offset: 0x24652, size: 0x8, addend: 0x0, symName: __ZNSt3__122__compressed_pair_elemIRNS_9allocatorIP6WaiterEELi1ELb0EEC2B7v160006IS5_vEEOT_, symObjAddr: 0x3F6C, symBinAddr: 0x100007C8C, symSize: 0x20 }
  - { offsetInCU: 0x1118D, offset: 0x24692, size: 0x8, addend: 0x0, symName: __ZNSt3__117__compressed_pairIPP6WaiterRNS_9allocatorIS2_EEE6secondB7v160006Ev, symObjAddr: 0x3F8C, symBinAddr: 0x100007CAC, symSize: 0x28 }
  - { offsetInCU: 0x111B2, offset: 0x246B7, size: 0x8, addend: 0x0, symName: __ZNSt3__122__compressed_pair_elemIRNS_9allocatorIP6WaiterEELi1ELb0EE5__getB7v160006Ev, symObjAddr: 0x3FB4, symBinAddr: 0x100007CD4, symSize: 0x18 }
  - { offsetInCU: 0x111D7, offset: 0x246DC, size: 0x8, addend: 0x0, symName: __ZNSt3__117__compressed_pairIPP6WaiterRNS_9allocatorIS2_EEE5firstB7v160006Ev, symObjAddr: 0x3FCC, symBinAddr: 0x100007CEC, symSize: 0x24 }
  - { offsetInCU: 0x1121F, offset: 0x24724, size: 0x8, addend: 0x0, symName: __ZNKSt3__111__move_loopINS_17_ClassicAlgPolicyEEclB7v160006INS_16reverse_iteratorIPP6WaiterEES8_S8_EENS_4pairIT_T1_EESA_T0_SB_, symObjAddr: 0x43A4, symBinAddr: 0x1000080C4, symSize: 0xA0 }
  - { offsetInCU: 0x11289, offset: 0x2478E, size: 0x8, addend: 0x0, symName: __ZNSt3__18_IterOpsINS_17_ClassicAlgPolicyEE11__iter_moveB7v160006IRNS_16reverse_iteratorIPP6WaiterEEEENS_9enable_ifIXsr12is_referenceIDTdeclsr3stdE7declvalIRT_EEEEE5valueEDTclsr3stdE4movedeclsr3stdE7declvalISC_EEEEE4typeEOSB_, symObjAddr: 0x4590, symBinAddr: 0x1000082B0, symSize: 0x28 }
  - { offsetInCU: 0x112B5, offset: 0x247BA, size: 0x8, addend: 0x0, symName: __ZNSt3__18_IterOpsINS_17_ClassicAlgPolicyEE25__validate_iter_referenceB7v160006IRNS_16reverse_iteratorIPP6WaiterEEEEvv, symObjAddr: 0x45B8, symBinAddr: 0x1000082D8, symSize: 0x4 }
  - { offsetInCU: 0x112D3, offset: 0x247D8, size: 0x8, addend: 0x0, symName: __ZNSt3__118__unwrap_iter_implINS_16reverse_iteratorIPP6WaiterEELb0EE8__unwrapB7v160006ES5_, symObjAddr: 0x45BC, symBinAddr: 0x1000082DC, symSize: 0x24 }
  - { offsetInCU: 0x112FB, offset: 0x24800, size: 0x8, addend: 0x0, symName: __ZNSt3__14pairINS_16reverse_iteratorIPP6WaiterEES5_EC1B7v160006IS5_S5_LPv0EEEOT_OT0_, symObjAddr: 0x45E0, symBinAddr: 0x100008300, symSize: 0x3C }
  - { offsetInCU: 0x11358, offset: 0x2485D, size: 0x8, addend: 0x0, symName: __ZNSt3__14pairINS_16reverse_iteratorIPP6WaiterEES5_EC2B7v160006IS5_S5_LPv0EEEOT_OT0_, symObjAddr: 0x461C, symBinAddr: 0x10000833C, symSize: 0x34 }
  - { offsetInCU: 0x113B5, offset: 0x248BA, size: 0x8, addend: 0x0, symName: __ZNSt3__118__unwrap_iter_implINS_16reverse_iteratorIPP6WaiterEELb0EE8__rewrapB7v160006ES5_S5_, symObjAddr: 0x4650, symBinAddr: 0x100008370, symSize: 0x2C }
  - { offsetInCU: 0x113E2, offset: 0x248E7, size: 0x8, addend: 0x0, symName: __ZNSt3__114__split_bufferIP6WaiterRNS_9allocatorIS2_EEED2Ev, symObjAddr: 0x467C, symBinAddr: 0x10000839C, symSize: 0x8C }
  - { offsetInCU: 0x1140D, offset: 0x24912, size: 0x8, addend: 0x0, symName: __ZNSt3__114__split_bufferIP6WaiterRNS_9allocatorIS2_EEE5clearB7v160006Ev, symObjAddr: 0x4708, symBinAddr: 0x100008428, symSize: 0x28 }
  - { offsetInCU: 0x11432, offset: 0x24937, size: 0x8, addend: 0x0, symName: __ZNKSt3__114__split_bufferIP6WaiterRNS_9allocatorIS2_EEE8capacityB7v160006Ev, symObjAddr: 0x4730, symBinAddr: 0x100008450, symSize: 0x40 }
  - { offsetInCU: 0x11457, offset: 0x2495C, size: 0x8, addend: 0x0, symName: __ZNSt3__114__split_bufferIP6WaiterRNS_9allocatorIS2_EEE17__destruct_at_endB7v160006EPS2_, symObjAddr: 0x4770, symBinAddr: 0x100008490, symSize: 0x2C }
  - { offsetInCU: 0x11489, offset: 0x2498E, size: 0x8, addend: 0x0, symName: __ZNSt3__114__split_bufferIP6WaiterRNS_9allocatorIS2_EEE17__destruct_at_endB7v160006EPS2_NS_17integral_constantIbLb0EEE, symObjAddr: 0x479C, symBinAddr: 0x1000084BC, symSize: 0x80 }
  - { offsetInCU: 0x114C9, offset: 0x249CE, size: 0x8, addend: 0x0, symName: __ZNKSt3__114__split_bufferIP6WaiterRNS_9allocatorIS2_EEE9__end_capB7v160006Ev, symObjAddr: 0x481C, symBinAddr: 0x10000853C, symSize: 0x28 }
  - { offsetInCU: 0x114EE, offset: 0x249F3, size: 0x8, addend: 0x0, symName: __ZNKSt3__117__compressed_pairIPP6WaiterRNS_9allocatorIS2_EEE5firstB7v160006Ev, symObjAddr: 0x4844, symBinAddr: 0x100008564, symSize: 0x24 }
  - { offsetInCU: 0x11518, offset: 0x24A1D, size: 0x8, addend: 0x0, symName: __ZNSt3__16vectorIP15RestaurantTableNS_9allocatorIS2_EEE22__construct_one_at_endB7v160006IJS2_EEEvDpOT_, symObjAddr: 0x4868, symBinAddr: 0x100008588, symSize: 0x90 }
  - { offsetInCU: 0x11565, offset: 0x24A6A, size: 0x8, addend: 0x0, symName: __ZNSt3__16vectorIP15RestaurantTableNS_9allocatorIS2_EEE21__push_back_slow_pathIS2_EEvOT_, symObjAddr: 0x48F8, symBinAddr: 0x100008618, symSize: 0xD8 }
  - { offsetInCU: 0x115C3, offset: 0x24AC8, size: 0x8, addend: 0x0, symName: __ZNSt3__116allocator_traitsINS_9allocatorIP15RestaurantTableEEE9constructB7v160006IS3_JS3_EvEEvRS4_PT_DpOT0_, symObjAddr: 0x49D0, symBinAddr: 0x1000086F0, symSize: 0x34 }
  - { offsetInCU: 0x1161A, offset: 0x24B1F, size: 0x8, addend: 0x0, symName: __ZNSt3__19allocatorIP15RestaurantTableE9constructB7v160006IS2_JS2_EEEvPT_DpOT0_, symObjAddr: 0x4A04, symBinAddr: 0x100008724, symSize: 0x28 }
  - { offsetInCU: 0x1166E, offset: 0x24B73, size: 0x8, addend: 0x0, symName: __ZNKSt3__16vectorIP15RestaurantTableNS_9allocatorIS2_EEE11__recommendB7v160006Em, symObjAddr: 0x4A2C, symBinAddr: 0x10000874C, symSize: 0xB4 }
  - { offsetInCU: 0x116C3, offset: 0x24BC8, size: 0x8, addend: 0x0, symName: __ZNSt3__114__split_bufferIP15RestaurantTableRNS_9allocatorIS2_EEEC1EmmS5_, symObjAddr: 0x4AE0, symBinAddr: 0x100008800, symSize: 0x44 }
  - { offsetInCU: 0x11718, offset: 0x24C1D, size: 0x8, addend: 0x0, symName: __ZNSt3__114__split_bufferIP15RestaurantTableRNS_9allocatorIS2_EEED1Ev, symObjAddr: 0x4C3C, symBinAddr: 0x10000895C, symSize: 0x2C }
  - { offsetInCU: 0x11743, offset: 0x24C48, size: 0x8, addend: 0x0, symName: __ZNSt3__114__split_bufferIP15RestaurantTableRNS_9allocatorIS2_EEEC2EmmS5_, symObjAddr: 0x4C68, symBinAddr: 0x100008988, symSize: 0xD4 }
  - { offsetInCU: 0x117B6, offset: 0x24CBB, size: 0x8, addend: 0x0, symName: __ZNSt3__117__compressed_pairIPP15RestaurantTableRNS_9allocatorIS2_EEEC1B7v160006IDnS6_EEOT_OT0_, symObjAddr: 0x4D3C, symBinAddr: 0x100008A5C, symSize: 0x3C }
  - { offsetInCU: 0x1180C, offset: 0x24D11, size: 0x8, addend: 0x0, symName: __ZNSt3__114__split_bufferIP15RestaurantTableRNS_9allocatorIS2_EEE7__allocB7v160006Ev, symObjAddr: 0x4D78, symBinAddr: 0x100008A98, symSize: 0x28 }
  - { offsetInCU: 0x11831, offset: 0x24D36, size: 0x8, addend: 0x0, symName: __ZNSt3__114__split_bufferIP15RestaurantTableRNS_9allocatorIS2_EEE9__end_capB7v160006Ev, symObjAddr: 0x4DA0, symBinAddr: 0x100008AC0, symSize: 0x28 }
  - { offsetInCU: 0x11856, offset: 0x24D5B, size: 0x8, addend: 0x0, symName: __ZNSt3__117__compressed_pairIPP15RestaurantTableRNS_9allocatorIS2_EEEC2B7v160006IDnS6_EEOT_OT0_, symObjAddr: 0x4DC8, symBinAddr: 0x100008AE8, symSize: 0x48 }
  - { offsetInCU: 0x118AC, offset: 0x24DB1, size: 0x8, addend: 0x0, symName: __ZNSt3__122__compressed_pair_elemIRNS_9allocatorIP15RestaurantTableEELi1ELb0EEC2B7v160006IS5_vEEOT_, symObjAddr: 0x4E10, symBinAddr: 0x100008B30, symSize: 0x20 }
  - { offsetInCU: 0x118EC, offset: 0x24DF1, size: 0x8, addend: 0x0, symName: __ZNSt3__117__compressed_pairIPP15RestaurantTableRNS_9allocatorIS2_EEE6secondB7v160006Ev, symObjAddr: 0x4E30, symBinAddr: 0x100008B50, symSize: 0x28 }
  - { offsetInCU: 0x11911, offset: 0x24E16, size: 0x8, addend: 0x0, symName: __ZNSt3__122__compressed_pair_elemIRNS_9allocatorIP15RestaurantTableEELi1ELb0EE5__getB7v160006Ev, symObjAddr: 0x4E58, symBinAddr: 0x100008B78, symSize: 0x18 }
  - { offsetInCU: 0x11936, offset: 0x24E3B, size: 0x8, addend: 0x0, symName: __ZNSt3__117__compressed_pairIPP15RestaurantTableRNS_9allocatorIS2_EEE5firstB7v160006Ev, symObjAddr: 0x4E70, symBinAddr: 0x100008B90, symSize: 0x24 }
  - { offsetInCU: 0x11974, offset: 0x24E79, size: 0x8, addend: 0x0, symName: __ZNKSt3__111__move_loopINS_17_ClassicAlgPolicyEEclB7v160006INS_16reverse_iteratorIPP15RestaurantTableEES8_S8_EENS_4pairIT_T1_EESA_T0_SB_, symObjAddr: 0x5248, symBinAddr: 0x100008F68, symSize: 0xA0 }
  - { offsetInCU: 0x119DE, offset: 0x24EE3, size: 0x8, addend: 0x0, symName: __ZNSt3__18_IterOpsINS_17_ClassicAlgPolicyEE11__iter_moveB7v160006IRNS_16reverse_iteratorIPP15RestaurantTableEEEENS_9enable_ifIXsr12is_referenceIDTdeclsr3stdE7declvalIRT_EEEEE5valueEDTclsr3stdE4movedeclsr3stdE7declvalISC_EEEEE4typeEOSB_, symObjAddr: 0x5434, symBinAddr: 0x100009154, symSize: 0x28 }
  - { offsetInCU: 0x11A0A, offset: 0x24F0F, size: 0x8, addend: 0x0, symName: __ZNSt3__18_IterOpsINS_17_ClassicAlgPolicyEE25__validate_iter_referenceB7v160006IRNS_16reverse_iteratorIPP15RestaurantTableEEEEvv, symObjAddr: 0x545C, symBinAddr: 0x10000917C, symSize: 0x4 }
  - { offsetInCU: 0x11A28, offset: 0x24F2D, size: 0x8, addend: 0x0, symName: __ZNSt3__118__unwrap_iter_implINS_16reverse_iteratorIPP15RestaurantTableEELb0EE8__unwrapB7v160006ES5_, symObjAddr: 0x5460, symBinAddr: 0x100009180, symSize: 0x24 }
  - { offsetInCU: 0x11A50, offset: 0x24F55, size: 0x8, addend: 0x0, symName: __ZNSt3__14pairINS_16reverse_iteratorIPP15RestaurantTableEES5_EC1B7v160006IS5_S5_LPv0EEEOT_OT0_, symObjAddr: 0x5484, symBinAddr: 0x1000091A4, symSize: 0x3C }
  - { offsetInCU: 0x11AAD, offset: 0x24FB2, size: 0x8, addend: 0x0, symName: __ZNSt3__14pairINS_16reverse_iteratorIPP15RestaurantTableEES5_EC2B7v160006IS5_S5_LPv0EEEOT_OT0_, symObjAddr: 0x54C0, symBinAddr: 0x1000091E0, symSize: 0x34 }
  - { offsetInCU: 0x11B0A, offset: 0x2500F, size: 0x8, addend: 0x0, symName: __ZNSt3__118__unwrap_iter_implINS_16reverse_iteratorIPP15RestaurantTableEELb0EE8__rewrapB7v160006ES5_S5_, symObjAddr: 0x54F4, symBinAddr: 0x100009214, symSize: 0x2C }
  - { offsetInCU: 0x11B37, offset: 0x2503C, size: 0x8, addend: 0x0, symName: __ZNSt3__114__split_bufferIP15RestaurantTableRNS_9allocatorIS2_EEED2Ev, symObjAddr: 0x5520, symBinAddr: 0x100009240, symSize: 0x8C }
  - { offsetInCU: 0x11B62, offset: 0x25067, size: 0x8, addend: 0x0, symName: __ZNSt3__114__split_bufferIP15RestaurantTableRNS_9allocatorIS2_EEE5clearB7v160006Ev, symObjAddr: 0x55AC, symBinAddr: 0x1000092CC, symSize: 0x28 }
  - { offsetInCU: 0x11B87, offset: 0x2508C, size: 0x8, addend: 0x0, symName: __ZNKSt3__114__split_bufferIP15RestaurantTableRNS_9allocatorIS2_EEE8capacityB7v160006Ev, symObjAddr: 0x55D4, symBinAddr: 0x1000092F4, symSize: 0x40 }
  - { offsetInCU: 0x11BAC, offset: 0x250B1, size: 0x8, addend: 0x0, symName: __ZNSt3__114__split_bufferIP15RestaurantTableRNS_9allocatorIS2_EEE17__destruct_at_endB7v160006EPS2_, symObjAddr: 0x5614, symBinAddr: 0x100009334, symSize: 0x2C }
  - { offsetInCU: 0x11BDE, offset: 0x250E3, size: 0x8, addend: 0x0, symName: __ZNSt3__114__split_bufferIP15RestaurantTableRNS_9allocatorIS2_EEE17__destruct_at_endB7v160006EPS2_NS_17integral_constantIbLb0EEE, symObjAddr: 0x5640, symBinAddr: 0x100009360, symSize: 0x80 }
  - { offsetInCU: 0x11C1E, offset: 0x25123, size: 0x8, addend: 0x0, symName: __ZNKSt3__114__split_bufferIP15RestaurantTableRNS_9allocatorIS2_EEE9__end_capB7v160006Ev, symObjAddr: 0x56C0, symBinAddr: 0x1000093E0, symSize: 0x28 }
  - { offsetInCU: 0x11C43, offset: 0x25148, size: 0x8, addend: 0x0, symName: __ZNKSt3__117__compressed_pairIPP15RestaurantTableRNS_9allocatorIS2_EEE5firstB7v160006Ev, symObjAddr: 0x56E8, symBinAddr: 0x100009408, symSize: 0x24 }
  - { offsetInCU: 0x11C68, offset: 0x2516D, size: 0x8, addend: 0x0, symName: __ZNSt3__16vectorIP15RestaurantTableNS_9allocatorIS2_EEE22__construct_one_at_endB7v160006IJRKS2_EEEvDpOT_, symObjAddr: 0x570C, symBinAddr: 0x10000942C, symSize: 0x90 }
  - { offsetInCU: 0x11CB5, offset: 0x251BA, size: 0x8, addend: 0x0, symName: __ZNSt3__16vectorIP15RestaurantTableNS_9allocatorIS2_EEE21__push_back_slow_pathIRKS2_EEvOT_, symObjAddr: 0x579C, symBinAddr: 0x1000094BC, symSize: 0xD8 }
  - { offsetInCU: 0x11D13, offset: 0x25218, size: 0x8, addend: 0x0, symName: __ZNSt3__116allocator_traitsINS_9allocatorIP15RestaurantTableEEE9constructB7v160006IS3_JRKS3_EvEEvRS4_PT_DpOT0_, symObjAddr: 0x5874, symBinAddr: 0x100009594, symSize: 0x34 }
  - { offsetInCU: 0x11D6A, offset: 0x2526F, size: 0x8, addend: 0x0, symName: __ZNSt3__19allocatorIP15RestaurantTableE9constructB7v160006IS2_JRKS2_EEEvPT_DpOT0_, symObjAddr: 0x58A8, symBinAddr: 0x1000095C8, symSize: 0x28 }
  - { offsetInCU: 0x11DBF, offset: 0x252C4, size: 0x8, addend: 0x0, symName: __ZNSt3__16vectorIP6WaiterNS_9allocatorIS2_EEE22__construct_one_at_endB7v160006IJRKS2_EEEvDpOT_, symObjAddr: 0x58D0, symBinAddr: 0x1000095F0, symSize: 0x90 }
  - { offsetInCU: 0x11E0C, offset: 0x25311, size: 0x8, addend: 0x0, symName: __ZNSt3__16vectorIP6WaiterNS_9allocatorIS2_EEE21__push_back_slow_pathIRKS2_EEvOT_, symObjAddr: 0x5960, symBinAddr: 0x100009680, symSize: 0xD8 }
  - { offsetInCU: 0x11E6A, offset: 0x2536F, size: 0x8, addend: 0x0, symName: __ZNSt3__116allocator_traitsINS_9allocatorIP6WaiterEEE9constructB7v160006IS3_JRKS3_EvEEvRS4_PT_DpOT0_, symObjAddr: 0x5A38, symBinAddr: 0x100009758, symSize: 0x34 }
  - { offsetInCU: 0x11EC1, offset: 0x253C6, size: 0x8, addend: 0x0, symName: __ZNSt3__19allocatorIP6WaiterE9constructB7v160006IS2_JRKS2_EEEvPT_DpOT0_, symObjAddr: 0x5A6C, symBinAddr: 0x10000978C, symSize: 0x28 }
  - { offsetInCU: 0x11F34, offset: 0x25439, size: 0x8, addend: 0x0, symName: __ZNKSt3__113basic_ostreamIcNS_11char_traitsIcEEE6sentrycvbB7v160006Ev, symObjAddr: 0x5C80, symBinAddr: 0x1000099A0, symSize: 0x1C }
  - { offsetInCU: 0x11F59, offset: 0x2545E, size: 0x8, addend: 0x0, symName: __ZNSt3__119ostreambuf_iteratorIcNS_11char_traitsIcEEEC1B7v160006ERNS_13basic_ostreamIcS2_EE, symObjAddr: 0x5EDC, symBinAddr: 0x100009BFC, symSize: 0x34 }
  - { offsetInCU: 0x11F8F, offset: 0x25494, size: 0x8, addend: 0x0, symName: __ZNKSt3__18ios_base5flagsB7v160006Ev, symObjAddr: 0x5F10, symBinAddr: 0x100009C30, symSize: 0x18 }
  - { offsetInCU: 0x11FB5, offset: 0x254BA, size: 0x8, addend: 0x0, symName: __ZNKSt3__19basic_iosIcNS_11char_traitsIcEEE4fillB7v160006Ev, symObjAddr: 0x5F28, symBinAddr: 0x100009C48, symSize: 0x64 }
  - { offsetInCU: 0x11FDD, offset: 0x254E2, size: 0x8, addend: 0x0, symName: __ZNKSt3__119ostreambuf_iteratorIcNS_11char_traitsIcEEE6failedB7v160006Ev, symObjAddr: 0x5F8C, symBinAddr: 0x100009CAC, symSize: 0x24 }
  - { offsetInCU: 0x12002, offset: 0x25507, size: 0x8, addend: 0x0, symName: __ZNSt3__19basic_iosIcNS_11char_traitsIcEEE8setstateB7v160006Ej, symObjAddr: 0x5FB0, symBinAddr: 0x100009CD0, symSize: 0x2C }
  - { offsetInCU: 0x12036, offset: 0x2553B, size: 0x8, addend: 0x0, symName: __ZNKSt3__18ios_base5widthB7v160006Ev, symObjAddr: 0x5FDC, symBinAddr: 0x100009CFC, symSize: 0x18 }
  - { offsetInCU: 0x1205D, offset: 0x25562, size: 0x8, addend: 0x0, symName: __ZNSt3__115basic_streambufIcNS_11char_traitsIcEEE5sputnB7v160006EPKcl, symObjAddr: 0x5FF4, symBinAddr: 0x100009D14, symSize: 0x3C }
  - { offsetInCU: 0x1209E, offset: 0x255A3, size: 0x8, addend: 0x0, symName: __ZNSt3__112basic_stringIcNS_11char_traitsIcEENS_9allocatorIcEEEC1B7v160006Emc, symObjAddr: 0x6030, symBinAddr: 0x100009D50, symSize: 0x3C }
  - { offsetInCU: 0x120E4, offset: 0x255E9, size: 0x8, addend: 0x0, symName: __ZNKSt3__112basic_stringIcNS_11char_traitsIcEENS_9allocatorIcEEE4dataB7v160006Ev, symObjAddr: 0x606C, symBinAddr: 0x100009D8C, symSize: 0x28 }
  - { offsetInCU: 0x12109, offset: 0x2560E, size: 0x8, addend: 0x0, symName: __ZNSt3__18ios_base5widthB7v160006El, symObjAddr: 0x6094, symBinAddr: 0x100009DB4, symSize: 0x2C }
  - { offsetInCU: 0x1214E, offset: 0x25653, size: 0x8, addend: 0x0, symName: __ZNSt3__112basic_stringIcNS_11char_traitsIcEENS_9allocatorIcEEEC2B7v160006Emc, symObjAddr: 0x60C0, symBinAddr: 0x100009DE0, symSize: 0x54 }
  - { offsetInCU: 0x12194, offset: 0x25699, size: 0x8, addend: 0x0, symName: __ZNKSt3__112basic_stringIcNS_11char_traitsIcEENS_9allocatorIcEEE13__get_pointerB7v160006Ev, symObjAddr: 0x6128, symBinAddr: 0x100009E48, symSize: 0x54 }
  - { offsetInCU: 0x121B9, offset: 0x256BE, size: 0x8, addend: 0x0, symName: __ZNKSt3__112basic_stringIcNS_11char_traitsIcEENS_9allocatorIcEEE9__is_longB7v160006Ev, symObjAddr: 0x617C, symBinAddr: 0x100009E9C, symSize: 0x38 }
  - { offsetInCU: 0x121DE, offset: 0x256E3, size: 0x8, addend: 0x0, symName: __ZNKSt3__112basic_stringIcNS_11char_traitsIcEENS_9allocatorIcEEE18__get_long_pointerB7v160006Ev, symObjAddr: 0x61B4, symBinAddr: 0x100009ED4, symSize: 0x28 }
  - { offsetInCU: 0x12203, offset: 0x25708, size: 0x8, addend: 0x0, symName: __ZNKSt3__112basic_stringIcNS_11char_traitsIcEENS_9allocatorIcEEE19__get_short_pointerB7v160006Ev, symObjAddr: 0x61DC, symBinAddr: 0x100009EFC, symSize: 0x28 }
  - { offsetInCU: 0x12228, offset: 0x2572D, size: 0x8, addend: 0x0, symName: __ZNKSt3__117__compressed_pairINS_12basic_stringIcNS_11char_traitsIcEENS_9allocatorIcEEE5__repES5_E5firstB7v160006Ev, symObjAddr: 0x6204, symBinAddr: 0x100009F24, symSize: 0x24 }
  - { offsetInCU: 0x1224D, offset: 0x25752, size: 0x8, addend: 0x0, symName: __ZNKSt3__122__compressed_pair_elemINS_12basic_stringIcNS_11char_traitsIcEENS_9allocatorIcEEE5__repELi0ELb0EE5__getB7v160006Ev, symObjAddr: 0x6228, symBinAddr: 0x100009F48, symSize: 0x14 }
  - { offsetInCU: 0x12272, offset: 0x25777, size: 0x8, addend: 0x0, symName: __ZNSt3__114pointer_traitsIPKcE10pointer_toB7v160006ERS1_, symObjAddr: 0x623C, symBinAddr: 0x100009F5C, symSize: 0x14 }
  - { offsetInCU: 0x12295, offset: 0x2579A, size: 0x8, addend: 0x0, symName: __ZNSt3__119ostreambuf_iteratorIcNS_11char_traitsIcEEEC2B7v160006ERNS_13basic_ostreamIcS2_EE, symObjAddr: 0x6250, symBinAddr: 0x100009F70, symSize: 0x54 }
  - { offsetInCU: 0x122CA, offset: 0x257CF, size: 0x8, addend: 0x0, symName: __ZNKSt3__19basic_iosIcNS_11char_traitsIcEEE5rdbufB7v160006Ev, symObjAddr: 0x62A4, symBinAddr: 0x100009FC4, symSize: 0x24 }
  - { offsetInCU: 0x122F2, offset: 0x257F7, size: 0x8, addend: 0x0, symName: __ZNKSt3__18ios_base5rdbufB7v160006Ev, symObjAddr: 0x62C8, symBinAddr: 0x100009FE8, symSize: 0x18 }
  - { offsetInCU: 0x12317, offset: 0x2581C, size: 0x8, addend: 0x0, symName: __ZNSt3__111char_traitsIcE11eq_int_typeEii, symObjAddr: 0x62E0, symBinAddr: 0x10000A000, symSize: 0x28 }
  - { offsetInCU: 0x12348, offset: 0x2584D, size: 0x8, addend: 0x0, symName: __ZNSt3__111char_traitsIcE3eofEv, symObjAddr: 0x6308, symBinAddr: 0x10000A028, symSize: 0x8 }
  - { offsetInCU: 0x1235B, offset: 0x25860, size: 0x8, addend: 0x0, symName: __ZNKSt3__19basic_iosIcNS_11char_traitsIcEEE5widenB7v160006Ec, symObjAddr: 0x6310, symBinAddr: 0x10000A030, symSize: 0x84 }
  - { offsetInCU: 0x123C9, offset: 0x258CE, size: 0x8, addend: 0x0, symName: __ZNKSt3__15ctypeIcE5widenB7v160006Ec, symObjAddr: 0x63C0, symBinAddr: 0x10000A0E0, symSize: 0x38 }
  - { offsetInCU: 0x123FC, offset: 0x25901, size: 0x8, addend: 0x0, symName: __ZNSt3__18ios_base8setstateB7v160006Ej, symObjAddr: 0x63F8, symBinAddr: 0x10000A118, symSize: 0x34 }
  - { offsetInCU: 0x12433, offset: 0x25938, size: 0x8, addend: 0x0, symName: __ZNKSt3__112basic_stringIcNS_11char_traitsIcEENS_9allocatorIcEEE4sizeB7v160006Ev, symObjAddr: 0x642C, symBinAddr: 0x10000A14C, symSize: 0x54 }
  - { offsetInCU: 0x12458, offset: 0x2595D, size: 0x8, addend: 0x0, symName: __ZNKSt3__112basic_stringIcNS_11char_traitsIcEENS_9allocatorIcEEE15__get_long_sizeB7v160006Ev, symObjAddr: 0x6480, symBinAddr: 0x10000A1A0, symSize: 0x28 }
  - { offsetInCU: 0x1247D, offset: 0x25982, size: 0x8, addend: 0x0, symName: __ZNKSt3__112basic_stringIcNS_11char_traitsIcEENS_9allocatorIcEEE16__get_short_sizeB7v160006Ev, symObjAddr: 0x64A8, symBinAddr: 0x10000A1C8, symSize: 0x34 }
  - { offsetInCU: 0x26, offset: 0x25B07, size: 0x8, addend: 0x0, symName: __ZN14FloorColleagueC2EP8Mediator, symObjAddr: 0x0, symBinAddr: 0x10000A1FC, symSize: 0x60 }
  - { offsetInCU: 0x341F, offset: 0x28F00, size: 0x8, addend: 0x0, symName: __ZN14FloorColleagueC2EP8Mediator, symObjAddr: 0x0, symBinAddr: 0x10000A1FC, symSize: 0x60 }
  - { offsetInCU: 0x3457, offset: 0x28F38, size: 0x8, addend: 0x0, symName: __ZN14FloorColleagueC1EP8Mediator, symObjAddr: 0x60, symBinAddr: 0x10000A25C, symSize: 0x34 }
  - { offsetInCU: 0x26, offset: 0x28F9B, size: 0x8, addend: 0x0, symName: __ZN16KitchenColleagueC2EP8Mediator, symObjAddr: 0x0, symBinAddr: 0x10000A290, symSize: 0x60 }
  - { offsetInCU: 0x341F, offset: 0x2C394, size: 0x8, addend: 0x0, symName: __ZN16KitchenColleagueC2EP8Mediator, symObjAddr: 0x0, symBinAddr: 0x10000A290, symSize: 0x60 }
  - { offsetInCU: 0x3457, offset: 0x2C3CC, size: 0x8, addend: 0x0, symName: __ZN16KitchenColleagueC1EP8Mediator, symObjAddr: 0x60, symBinAddr: 0x10000A2F0, symSize: 0x34 }
  - { offsetInCU: 0x2079, offset: 0x2E482, size: 0x8, addend: 0x0, symName: __ZNSt3__112__to_addressB7v160006IP9ColleagueEEPT_S4_, symObjAddr: 0x400, symBinAddr: 0x10000A724, symSize: 0x14 }
  - { offsetInCU: 0x20AE, offset: 0x2E4B7, size: 0x8, addend: 0x0, symName: __ZNSt3__119__allocate_at_leastB7v160006INS_9allocatorIP9ColleagueEEEENS_19__allocation_resultINS_16allocator_traitsIT_E7pointerEEERS7_m, symObjAddr: 0xC44, symBinAddr: 0x10000AD28, symSize: 0x40 }
  - { offsetInCU: 0x20F2, offset: 0x2E4FB, size: 0x8, addend: 0x0, symName: __ZNSt3__142__uninitialized_allocator_move_if_noexceptB7v160006INS_9allocatorIP9ColleagueEENS_16reverse_iteratorIPS3_EES7_S3_vEET1_RT_T0_SB_S8_, symObjAddr: 0xF4C, symBinAddr: 0x10000AF94, symSize: 0x78 }
  - { offsetInCU: 0x2170, offset: 0x2E579, size: 0x8, addend: 0x0, symName: __ZNSt3__14swapB7v160006IPP9ColleagueEENS_9enable_ifIXaasr21is_move_constructibleIT_EE5valuesr18is_move_assignableIS5_EE5valueEvE4typeERS5_S8_, symObjAddr: 0x1010, symBinAddr: 0x10000B058, symSize: 0x3C }
  - { offsetInCU: 0x21C2, offset: 0x2E5CB, size: 0x8, addend: 0x0, symName: __ZNSt3__125__debug_db_invalidate_allB7v160006INS_6vectorIP9ColleagueNS_9allocatorIS3_EEEEEEvPT_, symObjAddr: 0x10F8, symBinAddr: 0x10000B140, symSize: 0x10 }
  - { offsetInCU: 0x21F3, offset: 0x2E5FC, size: 0x8, addend: 0x0, symName: __ZNSt3__14moveB7v160006INS_16reverse_iteratorIPP9ColleagueEES5_EET0_T_S7_S6_, symObjAddr: 0x1150, symBinAddr: 0x10000B198, symSize: 0x78 }
  - { offsetInCU: 0x224E, offset: 0x2E657, size: 0x8, addend: 0x0, symName: __ZNSt3__16__moveB7v160006INS_17_ClassicAlgPolicyENS_16reverse_iteratorIPP9ColleagueEES6_S6_EENS_4pairIT0_T2_EES8_T1_S9_, symObjAddr: 0x11C8, symBinAddr: 0x10000B210, symSize: 0x64 }
  - { offsetInCU: 0x22BB, offset: 0x2E6C4, size: 0x8, addend: 0x0, symName: __ZNSt3__123__dispatch_copy_or_moveB7v160006INS_17_ClassicAlgPolicyENS_11__move_loopIS1_EENS_14__move_trivialENS_16reverse_iteratorIPP9ColleagueEES9_S9_EENS_4pairIT2_T4_EESB_T3_SC_, symObjAddr: 0x122C, symBinAddr: 0x10000B274, symSize: 0x64 }
  - { offsetInCU: 0x233A, offset: 0x2E743, size: 0x8, addend: 0x0, symName: __ZNSt3__121__unwrap_and_dispatchB7v160006INS_10__overloadINS_11__move_loopINS_17_ClassicAlgPolicyEEENS_14__move_trivialEEENS_16reverse_iteratorIPP9ColleagueEESB_SB_Li0EEENS_4pairIT0_T2_EESD_T1_SE_, symObjAddr: 0x1290, symBinAddr: 0x10000B2D8, symSize: 0x12C }
  - { offsetInCU: 0x23CD, offset: 0x2E7D6, size: 0x8, addend: 0x0, symName: __ZNSt3__114__unwrap_rangeB7v160006INS_16reverse_iteratorIPP9ColleagueEES5_EENS_4pairIT0_S7_EET_S9_, symObjAddr: 0x13BC, symBinAddr: 0x10000B404, symSize: 0x84 }
  - { offsetInCU: 0x2541, offset: 0x2E94A, size: 0x8, addend: 0x0, symName: __ZNSt3__113__unwrap_iterB7v160006INS_16reverse_iteratorIPP9ColleagueEENS_18__unwrap_iter_implIS5_Lb0EEELi0EEEDTclsrT0_8__unwrapclsr3stdE7declvalIT_EEEES9_, symObjAddr: 0x14E0, symBinAddr: 0x10000B528, symSize: 0x44 }
  - { offsetInCU: 0x2586, offset: 0x2E98F, size: 0x8, addend: 0x0, symName: __ZNSt3__19make_pairB7v160006INS_16reverse_iteratorIPP9ColleagueEES5_EENS_4pairINS_18__unwrap_ref_decayIT_E4typeENS7_IT0_E4typeEEEOS8_OSB_, symObjAddr: 0x1524, symBinAddr: 0x10000B56C, symSize: 0x38 }
  - { offsetInCU: 0x25D5, offset: 0x2E9DE, size: 0x8, addend: 0x0, symName: __ZNSt3__114__rewrap_rangeB7v160006INS_16reverse_iteratorIPP9ColleagueEES5_EET_S6_T0_, symObjAddr: 0x155C, symBinAddr: 0x10000B5A4, symSize: 0x5C }
  - { offsetInCU: 0x2622, offset: 0x2EA2B, size: 0x8, addend: 0x0, symName: __ZNSt3__113__rewrap_iterB7v160006INS_16reverse_iteratorIPP9ColleagueEES5_NS_18__unwrap_iter_implIS5_Lb0EEEEET_S8_T0_, symObjAddr: 0x15B8, symBinAddr: 0x10000B600, symSize: 0x74 }
  - { offsetInCU: 0x2678, offset: 0x2EA81, size: 0x8, addend: 0x0, symName: __ZNSt3__1neB7v160006IPP9ColleagueS3_EEbRKNS_16reverse_iteratorIT_EERKNS4_IT0_EE, symObjAddr: 0x162C, symBinAddr: 0x10000B674, symSize: 0x48 }
  - { offsetInCU: 0x2A23, offset: 0x2EE2C, size: 0x8, addend: 0x0, symName: __ZNSt3__16vectorIP9ColleagueNS_9allocatorIS2_EEE26__swap_out_circular_bufferERNS_14__split_bufferIS2_RS4_EE, symObjAddr: 0x5FC, symBinAddr: 0x10000A920, symSize: 0x118 }
  - { offsetInCU: 0x47F1, offset: 0x30BFA, size: 0x8, addend: 0x0, symName: __ZN8Mediator6notifyEP9Colleague, symObjAddr: 0x0, symBinAddr: 0x10000A324, symSize: 0xB4 }
  - { offsetInCU: 0x4843, offset: 0x30C4C, size: 0x8, addend: 0x0, symName: __ZNKSt3__16vectorIP9ColleagueNS_9allocatorIS2_EEE4sizeB7v160006Ev, symObjAddr: 0xB4, symBinAddr: 0x10000A3D8, symSize: 0x28 }
  - { offsetInCU: 0x4868, offset: 0x30C71, size: 0x8, addend: 0x0, symName: __ZNSt3__16vectorIP9ColleagueNS_9allocatorIS2_EEEixB7v160006Em, symObjAddr: 0xDC, symBinAddr: 0x10000A400, symSize: 0x24 }
  - { offsetInCU: 0x489E, offset: 0x30CA7, size: 0x8, addend: 0x0, symName: __ZN8Mediator12addColleagueEP9Colleague, symObjAddr: 0x100, symBinAddr: 0x10000A424, symSize: 0x34 }
  - { offsetInCU: 0x48D2, offset: 0x30CDB, size: 0x8, addend: 0x0, symName: __ZNSt3__16vectorIP9ColleagueNS_9allocatorIS2_EEE9push_backB7v160006ERKS2_, symObjAddr: 0x134, symBinAddr: 0x10000A458, symSize: 0x6C }
  - { offsetInCU: 0x4908, offset: 0x30D11, size: 0x8, addend: 0x0, symName: __ZNSt3__16vectorIP9ColleagueNS_9allocatorIS2_EEE9__end_capB7v160006Ev, symObjAddr: 0x1A0, symBinAddr: 0x10000A4C4, symSize: 0x28 }
  - { offsetInCU: 0x492D, offset: 0x30D36, size: 0x8, addend: 0x0, symName: __ZNSt3__16vectorIP9ColleagueNS_9allocatorIS2_EEE22__construct_one_at_endB7v160006IJRKS2_EEEvDpOT_, symObjAddr: 0x1C8, symBinAddr: 0x10000A4EC, symSize: 0x90 }
  - { offsetInCU: 0x497B, offset: 0x30D84, size: 0x8, addend: 0x0, symName: __ZNSt3__16vectorIP9ColleagueNS_9allocatorIS2_EEE21__push_back_slow_pathIRKS2_EEvOT_, symObjAddr: 0x258, symBinAddr: 0x10000A57C, symSize: 0xD8 }
  - { offsetInCU: 0x49D8, offset: 0x30DE1, size: 0x8, addend: 0x0, symName: __ZNSt3__117__compressed_pairIPP9ColleagueNS_9allocatorIS2_EEE5firstB7v160006Ev, symObjAddr: 0x330, symBinAddr: 0x10000A654, symSize: 0x24 }
  - { offsetInCU: 0x49FD, offset: 0x30E06, size: 0x8, addend: 0x0, symName: __ZNSt3__122__compressed_pair_elemIPP9ColleagueLi0ELb0EE5__getB7v160006Ev, symObjAddr: 0x354, symBinAddr: 0x10000A678, symSize: 0x14 }
  - { offsetInCU: 0x4A3B, offset: 0x30E44, size: 0x8, addend: 0x0, symName: __ZNSt3__16vectorIP9ColleagueNS_9allocatorIS2_EEE21_ConstructTransactionC1B7v160006ERS5_m, symObjAddr: 0x368, symBinAddr: 0x10000A68C, symSize: 0x3C }
  - { offsetInCU: 0x4A81, offset: 0x30E8A, size: 0x8, addend: 0x0, symName: __ZNSt3__116allocator_traitsINS_9allocatorIP9ColleagueEEE9constructB7v160006IS3_JRKS3_EvEEvRS4_PT_DpOT0_, symObjAddr: 0x3A4, symBinAddr: 0x10000A6C8, symSize: 0x34 }
  - { offsetInCU: 0x4AD8, offset: 0x30EE1, size: 0x8, addend: 0x0, symName: __ZNSt3__16vectorIP9ColleagueNS_9allocatorIS2_EEE7__allocB7v160006Ev, symObjAddr: 0x3D8, symBinAddr: 0x10000A6FC, symSize: 0x28 }
  - { offsetInCU: 0x4AFD, offset: 0x30F06, size: 0x8, addend: 0x0, symName: __ZNSt3__16vectorIP9ColleagueNS_9allocatorIS2_EEE21_ConstructTransactionD1B7v160006Ev, symObjAddr: 0x414, symBinAddr: 0x10000A738, symSize: 0x2C }
  - { offsetInCU: 0x4B25, offset: 0x30F2E, size: 0x8, addend: 0x0, symName: __ZNSt3__16vectorIP9ColleagueNS_9allocatorIS2_EEE21_ConstructTransactionC2B7v160006ERS5_m, symObjAddr: 0x440, symBinAddr: 0x10000A764, symSize: 0x44 }
  - { offsetInCU: 0x4B6B, offset: 0x30F74, size: 0x8, addend: 0x0, symName: __ZNSt3__19allocatorIP9ColleagueE9constructB7v160006IS2_JRKS2_EEEvPT_DpOT0_, symObjAddr: 0x484, symBinAddr: 0x10000A7A8, symSize: 0x28 }
  - { offsetInCU: 0x4BC0, offset: 0x30FC9, size: 0x8, addend: 0x0, symName: __ZNSt3__117__compressed_pairIPP9ColleagueNS_9allocatorIS2_EEE6secondB7v160006Ev, symObjAddr: 0x4AC, symBinAddr: 0x10000A7D0, symSize: 0x24 }
  - { offsetInCU: 0x4BE5, offset: 0x30FEE, size: 0x8, addend: 0x0, symName: __ZNSt3__122__compressed_pair_elemINS_9allocatorIP9ColleagueEELi1ELb1EE5__getB7v160006Ev, symObjAddr: 0x4D0, symBinAddr: 0x10000A7F4, symSize: 0x14 }
  - { offsetInCU: 0x4C0A, offset: 0x31013, size: 0x8, addend: 0x0, symName: __ZNSt3__16vectorIP9ColleagueNS_9allocatorIS2_EEE21_ConstructTransactionD2B7v160006Ev, symObjAddr: 0x4E4, symBinAddr: 0x10000A808, symSize: 0x20 }
  - { offsetInCU: 0x4C32, offset: 0x3103B, size: 0x8, addend: 0x0, symName: __ZNKSt3__16vectorIP9ColleagueNS_9allocatorIS2_EEE11__recommendB7v160006Em, symObjAddr: 0x504, symBinAddr: 0x10000A828, symSize: 0xB4 }
  - { offsetInCU: 0x4C86, offset: 0x3108F, size: 0x8, addend: 0x0, symName: __ZNSt3__114__split_bufferIP9ColleagueRNS_9allocatorIS2_EEEC1EmmS5_, symObjAddr: 0x5B8, symBinAddr: 0x10000A8DC, symSize: 0x44 }
  - { offsetInCU: 0x4CDB, offset: 0x310E4, size: 0x8, addend: 0x0, symName: __ZNSt3__114__split_bufferIP9ColleagueRNS_9allocatorIS2_EEED1Ev, symObjAddr: 0x714, symBinAddr: 0x10000AA38, symSize: 0x2C }
  - { offsetInCU: 0x4D06, offset: 0x3110F, size: 0x8, addend: 0x0, symName: __ZNKSt3__16vectorIP9ColleagueNS_9allocatorIS2_EEE8max_sizeEv, symObjAddr: 0x740, symBinAddr: 0x10000AA64, symSize: 0x60 }
  - { offsetInCU: 0x4D2D, offset: 0x31136, size: 0x8, addend: 0x0, symName: __ZNKSt3__16vectorIP9ColleagueNS_9allocatorIS2_EEE20__throw_length_errorB7v160006Ev, symObjAddr: 0x7A0, symBinAddr: 0x10000AAC4, symSize: 0x1C }
  - { offsetInCU: 0x4D52, offset: 0x3115B, size: 0x8, addend: 0x0, symName: __ZNKSt3__16vectorIP9ColleagueNS_9allocatorIS2_EEE8capacityB7v160006Ev, symObjAddr: 0x7BC, symBinAddr: 0x10000AAE0, symSize: 0x40 }
  - { offsetInCU: 0x4D81, offset: 0x3118A, size: 0x8, addend: 0x0, symName: __ZNSt3__116allocator_traitsINS_9allocatorIP9ColleagueEEE8max_sizeB7v160006IS4_vEEmRKS4_, symObjAddr: 0x854, symBinAddr: 0x10000AB20, symSize: 0x24 }
  - { offsetInCU: 0x4DAF, offset: 0x311B8, size: 0x8, addend: 0x0, symName: __ZNKSt3__16vectorIP9ColleagueNS_9allocatorIS2_EEE7__allocB7v160006Ev, symObjAddr: 0x878, symBinAddr: 0x10000AB44, symSize: 0x28 }
  - { offsetInCU: 0x4DD4, offset: 0x311DD, size: 0x8, addend: 0x0, symName: __ZNKSt3__19allocatorIP9ColleagueE8max_sizeB7v160006Ev, symObjAddr: 0x948, symBinAddr: 0x10000AB6C, symSize: 0x14 }
  - { offsetInCU: 0x4DF9, offset: 0x31202, size: 0x8, addend: 0x0, symName: __ZNKSt3__117__compressed_pairIPP9ColleagueNS_9allocatorIS2_EEE6secondB7v160006Ev, symObjAddr: 0x95C, symBinAddr: 0x10000AB80, symSize: 0x24 }
  - { offsetInCU: 0x4E1E, offset: 0x31227, size: 0x8, addend: 0x0, symName: __ZNKSt3__122__compressed_pair_elemINS_9allocatorIP9ColleagueEELi1ELb1EE5__getB7v160006Ev, symObjAddr: 0x980, symBinAddr: 0x10000ABA4, symSize: 0x14 }
  - { offsetInCU: 0x4E43, offset: 0x3124C, size: 0x8, addend: 0x0, symName: __ZNKSt3__16vectorIP9ColleagueNS_9allocatorIS2_EEE9__end_capB7v160006Ev, symObjAddr: 0xA80, symBinAddr: 0x10000ABB8, symSize: 0x28 }
  - { offsetInCU: 0x4E68, offset: 0x31271, size: 0x8, addend: 0x0, symName: __ZNKSt3__117__compressed_pairIPP9ColleagueNS_9allocatorIS2_EEE5firstB7v160006Ev, symObjAddr: 0xAA8, symBinAddr: 0x10000ABE0, symSize: 0x24 }
  - { offsetInCU: 0x4E8D, offset: 0x31296, size: 0x8, addend: 0x0, symName: __ZNKSt3__122__compressed_pair_elemIPP9ColleagueLi0ELb0EE5__getB7v160006Ev, symObjAddr: 0xACC, symBinAddr: 0x10000AC04, symSize: 0x14 }
  - { offsetInCU: 0x4EB2, offset: 0x312BB, size: 0x8, addend: 0x0, symName: __ZNSt3__114__split_bufferIP9ColleagueRNS_9allocatorIS2_EEEC2EmmS5_, symObjAddr: 0xB34, symBinAddr: 0x10000AC18, symSize: 0xD4 }
  - { offsetInCU: 0x4F2A, offset: 0x31333, size: 0x8, addend: 0x0, symName: __ZNSt3__117__compressed_pairIPP9ColleagueRNS_9allocatorIS2_EEEC1B7v160006IDnS6_EEOT_OT0_, symObjAddr: 0xC08, symBinAddr: 0x10000ACEC, symSize: 0x3C }
  - { offsetInCU: 0x4F80, offset: 0x31389, size: 0x8, addend: 0x0, symName: __ZNSt3__114__split_bufferIP9ColleagueRNS_9allocatorIS2_EEE7__allocB7v160006Ev, symObjAddr: 0xC84, symBinAddr: 0x10000AD68, symSize: 0x28 }
  - { offsetInCU: 0x4FA5, offset: 0x313AE, size: 0x8, addend: 0x0, symName: __ZNSt3__114__split_bufferIP9ColleagueRNS_9allocatorIS2_EEE9__end_capB7v160006Ev, symObjAddr: 0xCAC, symBinAddr: 0x10000AD90, symSize: 0x28 }
  - { offsetInCU: 0x4FCA, offset: 0x313D3, size: 0x8, addend: 0x0, symName: __ZNSt3__117__compressed_pairIPP9ColleagueRNS_9allocatorIS2_EEEC2B7v160006IDnS6_EEOT_OT0_, symObjAddr: 0xCD4, symBinAddr: 0x10000ADB8, symSize: 0x48 }
  - { offsetInCU: 0x5020, offset: 0x31429, size: 0x8, addend: 0x0, symName: __ZNSt3__122__compressed_pair_elemIRNS_9allocatorIP9ColleagueEELi1ELb0EEC2B7v160006IS5_vEEOT_, symObjAddr: 0xD38, symBinAddr: 0x10000AE00, symSize: 0x20 }
  - { offsetInCU: 0x5060, offset: 0x31469, size: 0x8, addend: 0x0, symName: __ZNSt3__19allocatorIP9ColleagueE8allocateB7v160006Em, symObjAddr: 0xD58, symBinAddr: 0x10000AE20, symSize: 0x58 }
  - { offsetInCU: 0x5093, offset: 0x3149C, size: 0x8, addend: 0x0, symName: __ZNSt3__117__compressed_pairIPP9ColleagueRNS_9allocatorIS2_EEE6secondB7v160006Ev, symObjAddr: 0xE30, symBinAddr: 0x10000AE78, symSize: 0x28 }
  - { offsetInCU: 0x50B8, offset: 0x314C1, size: 0x8, addend: 0x0, symName: __ZNSt3__122__compressed_pair_elemIRNS_9allocatorIP9ColleagueEELi1ELb0EE5__getB7v160006Ev, symObjAddr: 0xE58, symBinAddr: 0x10000AEA0, symSize: 0x18 }
  - { offsetInCU: 0x50DD, offset: 0x314E6, size: 0x8, addend: 0x0, symName: __ZNSt3__117__compressed_pairIPP9ColleagueRNS_9allocatorIS2_EEE5firstB7v160006Ev, symObjAddr: 0xE70, symBinAddr: 0x10000AEB8, symSize: 0x24 }
  - { offsetInCU: 0x5102, offset: 0x3150B, size: 0x8, addend: 0x0, symName: __ZNKSt3__16vectorIP9ColleagueNS_9allocatorIS2_EEE17__annotate_deleteB7v160006Ev, symObjAddr: 0xE94, symBinAddr: 0x10000AEDC, symSize: 0xB8 }
  - { offsetInCU: 0x5127, offset: 0x31530, size: 0x8, addend: 0x0, symName: __ZNSt3__116reverse_iteratorIPP9ColleagueEC1B7v160006ES3_, symObjAddr: 0xFC4, symBinAddr: 0x10000B00C, symSize: 0x34 }
  - { offsetInCU: 0x515D, offset: 0x31566, size: 0x8, addend: 0x0, symName: __ZNKSt3__116reverse_iteratorIPP9ColleagueE4baseB7v160006Ev, symObjAddr: 0xFF8, symBinAddr: 0x10000B040, symSize: 0x18 }
  - { offsetInCU: 0x5182, offset: 0x3158B, size: 0x8, addend: 0x0, symName: __ZNKSt3__16vectorIP9ColleagueNS_9allocatorIS2_EEE14__annotate_newB7v160006Em, symObjAddr: 0x104C, symBinAddr: 0x10000B094, symSize: 0xAC }
  - { offsetInCU: 0x51B6, offset: 0x315BF, size: 0x8, addend: 0x0, symName: __ZNKSt3__16vectorIP9ColleagueNS_9allocatorIS2_EEE31__annotate_contiguous_containerB7v160006EPKvS7_S7_S7_, symObjAddr: 0x1108, symBinAddr: 0x10000B150, symSize: 0x20 }
  - { offsetInCU: 0x520B, offset: 0x31614, size: 0x8, addend: 0x0, symName: __ZNKSt3__16vectorIP9ColleagueNS_9allocatorIS2_EEE4dataB7v160006Ev, symObjAddr: 0x1128, symBinAddr: 0x10000B170, symSize: 0x28 }
  - { offsetInCU: 0x5253, offset: 0x3165C, size: 0x8, addend: 0x0, symName: __ZNKSt3__111__move_loopINS_17_ClassicAlgPolicyEEclB7v160006INS_16reverse_iteratorIPP9ColleagueEES8_S8_EENS_4pairIT_T1_EESA_T0_SB_, symObjAddr: 0x1440, symBinAddr: 0x10000B488, symSize: 0xA0 }
  - { offsetInCU: 0x52C2, offset: 0x316CB, size: 0x8, addend: 0x0, symName: __ZNSt3__18_IterOpsINS_17_ClassicAlgPolicyEE11__iter_moveB7v160006IRNS_16reverse_iteratorIPP9ColleagueEEEENS_9enable_ifIXsr12is_referenceIDTdeclsr3stdE7declvalIRT_EEEEE5valueEDTclsr3stdE4movedeclsr3stdE7declvalISC_EEEEE4typeEOSB_, symObjAddr: 0x1674, symBinAddr: 0x10000B6BC, symSize: 0x28 }
  - { offsetInCU: 0x52EE, offset: 0x316F7, size: 0x8, addend: 0x0, symName: __ZNKSt3__116reverse_iteratorIPP9ColleagueEdeB7v160006Ev, symObjAddr: 0x169C, symBinAddr: 0x10000B6E4, symSize: 0x28 }
  - { offsetInCU: 0x5322, offset: 0x3172B, size: 0x8, addend: 0x0, symName: __ZNSt3__116reverse_iteratorIPP9ColleagueEppB7v160006Ev, symObjAddr: 0x16C4, symBinAddr: 0x10000B70C, symSize: 0x20 }
  - { offsetInCU: 0x5347, offset: 0x31750, size: 0x8, addend: 0x0, symName: __ZNSt3__18_IterOpsINS_17_ClassicAlgPolicyEE25__validate_iter_referenceB7v160006IRNS_16reverse_iteratorIPP9ColleagueEEEEvv, symObjAddr: 0x16E4, symBinAddr: 0x10000B72C, symSize: 0x4 }
  - { offsetInCU: 0x5365, offset: 0x3176E, size: 0x8, addend: 0x0, symName: __ZNSt3__118__unwrap_iter_implINS_16reverse_iteratorIPP9ColleagueEELb0EE8__unwrapB7v160006ES5_, symObjAddr: 0x16E8, symBinAddr: 0x10000B730, symSize: 0x24 }
  - { offsetInCU: 0x538D, offset: 0x31796, size: 0x8, addend: 0x0, symName: __ZNSt3__14pairINS_16reverse_iteratorIPP9ColleagueEES5_EC1B7v160006IS5_S5_LPv0EEEOT_OT0_, symObjAddr: 0x170C, symBinAddr: 0x10000B754, symSize: 0x3C }
  - { offsetInCU: 0x53EA, offset: 0x317F3, size: 0x8, addend: 0x0, symName: __ZNSt3__14pairINS_16reverse_iteratorIPP9ColleagueEES5_EC2B7v160006IS5_S5_LPv0EEEOT_OT0_, symObjAddr: 0x1748, symBinAddr: 0x10000B790, symSize: 0x34 }
  - { offsetInCU: 0x5447, offset: 0x31850, size: 0x8, addend: 0x0, symName: __ZNSt3__118__unwrap_iter_implINS_16reverse_iteratorIPP9ColleagueEELb0EE8__rewrapB7v160006ES5_S5_, symObjAddr: 0x177C, symBinAddr: 0x10000B7C4, symSize: 0x2C }
  - { offsetInCU: 0x5474, offset: 0x3187D, size: 0x8, addend: 0x0, symName: __ZNSt3__116reverse_iteratorIPP9ColleagueEC2B7v160006ES3_, symObjAddr: 0x17A8, symBinAddr: 0x10000B7F0, symSize: 0x28 }
  - { offsetInCU: 0x54AA, offset: 0x318B3, size: 0x8, addend: 0x0, symName: __ZNSt3__114__split_bufferIP9ColleagueRNS_9allocatorIS2_EEED2Ev, symObjAddr: 0x17D0, symBinAddr: 0x10000B818, symSize: 0x8C }
  - { offsetInCU: 0x54D5, offset: 0x318DE, size: 0x8, addend: 0x0, symName: __ZNSt3__114__split_bufferIP9ColleagueRNS_9allocatorIS2_EEE5clearB7v160006Ev, symObjAddr: 0x185C, symBinAddr: 0x10000B8A4, symSize: 0x28 }
  - { offsetInCU: 0x54FA, offset: 0x31903, size: 0x8, addend: 0x0, symName: __ZNSt3__116allocator_traitsINS_9allocatorIP9ColleagueEEE10deallocateB7v160006ERS4_PS3_m, symObjAddr: 0x1884, symBinAddr: 0x10000B8CC, symSize: 0x34 }
  - { offsetInCU: 0x553C, offset: 0x31945, size: 0x8, addend: 0x0, symName: __ZNKSt3__114__split_bufferIP9ColleagueRNS_9allocatorIS2_EEE8capacityB7v160006Ev, symObjAddr: 0x18B8, symBinAddr: 0x10000B900, symSize: 0x40 }
  - { offsetInCU: 0x5561, offset: 0x3196A, size: 0x8, addend: 0x0, symName: __ZNSt3__114__split_bufferIP9ColleagueRNS_9allocatorIS2_EEE17__destruct_at_endB7v160006EPS2_, symObjAddr: 0x18F8, symBinAddr: 0x10000B940, symSize: 0x2C }
  - { offsetInCU: 0x5594, offset: 0x3199D, size: 0x8, addend: 0x0, symName: __ZNSt3__114__split_bufferIP9ColleagueRNS_9allocatorIS2_EEE17__destruct_at_endB7v160006EPS2_NS_17integral_constantIbLb0EEE, symObjAddr: 0x1924, symBinAddr: 0x10000B96C, symSize: 0x80 }
  - { offsetInCU: 0x55D3, offset: 0x319DC, size: 0x8, addend: 0x0, symName: __ZNSt3__116allocator_traitsINS_9allocatorIP9ColleagueEEE7destroyB7v160006IS3_vEEvRS4_PT_, symObjAddr: 0x19A4, symBinAddr: 0x10000B9EC, symSize: 0x2C }
  - { offsetInCU: 0x5610, offset: 0x31A19, size: 0x8, addend: 0x0, symName: __ZNSt3__19allocatorIP9ColleagueE7destroyB7v160006EPS2_, symObjAddr: 0x19D0, symBinAddr: 0x10000BA18, symSize: 0x14 }
  - { offsetInCU: 0x5643, offset: 0x31A4C, size: 0x8, addend: 0x0, symName: __ZNSt3__19allocatorIP9ColleagueE10deallocateB7v160006EPS2_m, symObjAddr: 0x19E4, symBinAddr: 0x10000BA2C, symSize: 0x40 }
  - { offsetInCU: 0x5684, offset: 0x31A8D, size: 0x8, addend: 0x0, symName: __ZNKSt3__114__split_bufferIP9ColleagueRNS_9allocatorIS2_EEE9__end_capB7v160006Ev, symObjAddr: 0x1AA0, symBinAddr: 0x10000BA6C, symSize: 0x28 }
  - { offsetInCU: 0x56A9, offset: 0x31AB2, size: 0x8, addend: 0x0, symName: __ZNKSt3__117__compressed_pairIPP9ColleagueRNS_9allocatorIS2_EEE5firstB7v160006Ev, symObjAddr: 0x1AC8, symBinAddr: 0x10000BA94, symSize: 0x24 }
  - { offsetInCU: 0x4766, offset: 0x36292, size: 0x8, addend: 0x0, symName: __ZN8MenuItemC2ENSt3__112basic_stringIcNS0_11char_traitsIcEENS0_9allocatorIcEEEEbd, symObjAddr: 0x0, symBinAddr: 0x10000BAB8, symSize: 0x8C }
  - { offsetInCU: 0x47BB, offset: 0x362E7, size: 0x8, addend: 0x0, symName: __ZNSt3__112basic_stringIcNS_11char_traitsIcEENS_9allocatorIcEEEC1B7v160006Ev, symObjAddr: 0x8C, symBinAddr: 0x10000BB44, symSize: 0x2C }
  - { offsetInCU: 0x47E3, offset: 0x3630F, size: 0x8, addend: 0x0, symName: __ZN8MenuItemC1ENSt3__112basic_stringIcNS0_11char_traitsIcEENS0_9allocatorIcEEEEbd, symObjAddr: 0xB8, symBinAddr: 0x10000BB70, symSize: 0x50 }
  - { offsetInCU: 0x4838, offset: 0x36364, size: 0x8, addend: 0x0, symName: __ZN8MenuItem7getNameEv, symObjAddr: 0x108, symBinAddr: 0x10000BBC0, symSize: 0x38 }
  - { offsetInCU: 0x485E, offset: 0x3638A, size: 0x8, addend: 0x0, symName: __ZN8MenuItem8getPriceEv, symObjAddr: 0x140, symBinAddr: 0x10000BBF8, symSize: 0x18 }
  - { offsetInCU: 0x4884, offset: 0x363B0, size: 0x8, addend: 0x0, symName: __ZN8MenuItem12isVegetarianEv, symObjAddr: 0x158, symBinAddr: 0x10000BC10, symSize: 0x1C }
  - { offsetInCU: 0x48AA, offset: 0x363D6, size: 0x8, addend: 0x0, symName: __ZN8MenuItemppEi, symObjAddr: 0x174, symBinAddr: 0x10000BC2C, symSize: 0x24 }
  - { offsetInCU: 0x48DA, offset: 0x36406, size: 0x8, addend: 0x0, symName: __ZNSt3__112basic_stringIcNS_11char_traitsIcEENS_9allocatorIcEEEC2B7v160006Ev, symObjAddr: 0x198, symBinAddr: 0x10000BC50, symSize: 0x54 }
  - { offsetInCU: 0x4902, offset: 0x3642E, size: 0x8, addend: 0x0, symName: __ZNSt3__112basic_stringIcNS_11char_traitsIcEENS_9allocatorIcEEE14__default_initB7v160006Ev, symObjAddr: 0x244, symBinAddr: 0x10000BCA4, symSize: 0x40 }
  - { offsetInCU: 0x4927, offset: 0x36453, size: 0x8, addend: 0x0, symName: __ZNSt3__117__compressed_pairINS_12basic_stringIcNS_11char_traitsIcEENS_9allocatorIcEEE5__repES5_E5firstB7v160006Ev, symObjAddr: 0x340, symBinAddr: 0x10000BCE4, symSize: 0x24 }
  - { offsetInCU: 0x494C, offset: 0x36478, size: 0x8, addend: 0x0, symName: __ZNSt3__122__compressed_pair_elemINS_12basic_stringIcNS_11char_traitsIcEENS_9allocatorIcEEE5__repELi0ELb0EE5__getB7v160006Ev, symObjAddr: 0x364, symBinAddr: 0x10000BD08, symSize: 0x14 }
  - { offsetInCU: 0x37DF, offset: 0x39C86, size: 0x8, addend: 0x0, symName: __ZNSt3__17advanceB7v160006IPP8MenuItemmmvEEvRT_T0_, symObjAddr: 0x28E4, symBinAddr: 0x10000E0B0, symSize: 0x50 }
  - { offsetInCU: 0x4464, offset: 0x3A90B, size: 0x8, addend: 0x0, symName: __ZNSt3__1neB7v160006IPP8MenuItemEEbRKNS_11__wrap_iterIT_EES8_, symObjAddr: 0x2C4, symBinAddr: 0x10000BFE0, symSize: 0x34 }
  - { offsetInCU: 0x44A8, offset: 0x3A94F, size: 0x8, addend: 0x0, symName: __ZNSt3__1eqB7v160006INS_9allocatorIcEEEEbRKNS_12basic_stringIcNS_11char_traitsIcEET_EES9_, symObjAddr: 0x310, symBinAddr: 0x10000C02C, symSize: 0x148 }
  - { offsetInCU: 0x451B, offset: 0x3A9C2, size: 0x8, addend: 0x0, symName: __ZNSt3__1neB7v160006IcNS_11char_traitsIcEENS_9allocatorIcEEEEbRKNS_12basic_stringIT_T0_T1_EESB_, symObjAddr: 0x5B8, symBinAddr: 0x10000C2D4, symSize: 0x34 }
  - { offsetInCU: 0x4573, offset: 0x3AA1A, size: 0x8, addend: 0x0, symName: __ZNSt3__1eqB7v160006IPP8MenuItemEEbRKNS_11__wrap_iterIT_EES8_, symObjAddr: 0x698, symBinAddr: 0x10000C3B4, symSize: 0x48 }
  - { offsetInCU: 0x45B7, offset: 0x3AA5E, size: 0x8, addend: 0x0, symName: __ZNSt3__119__debug_db_insert_cB7v160006INS_6vectorIP8MenuItemNS_9allocatorIS3_EEEEEEvPT_, symObjAddr: 0x798, symBinAddr: 0x10000C4A8, symSize: 0x10 }
  - { offsetInCU: 0x45E8, offset: 0x3AA8F, size: 0x8, addend: 0x0, symName: __ZNSt3__118__debug_db_erase_cB7v160006INS_6vectorIP8MenuItemNS_9allocatorIS3_EEEEEEvPT_, symObjAddr: 0xA5C, symBinAddr: 0x10000C76C, symSize: 0x10 }
  - { offsetInCU: 0x4619, offset: 0x3AAC0, size: 0x8, addend: 0x0, symName: __ZNSt3__112__to_addressB7v160006IP8MenuItemEEPT_S4_, symObjAddr: 0xBA0, symBinAddr: 0x10000C8B0, symSize: 0x14 }
  - { offsetInCU: 0x464E, offset: 0x3AAF5, size: 0x8, addend: 0x0, symName: __ZNSt3__119__allocate_at_leastB7v160006INS_9allocatorIP8MenuItemEEEENS_19__allocation_resultINS_16allocator_traitsIT_E7pointerEEERS7_m, symObjAddr: 0x1758, symBinAddr: 0x10000D1B8, symSize: 0x40 }
  - { offsetInCU: 0x4692, offset: 0x3AB39, size: 0x8, addend: 0x0, symName: __ZNSt3__142__uninitialized_allocator_move_if_noexceptB7v160006INS_9allocatorIP8MenuItemEENS_16reverse_iteratorIPS3_EES7_S3_vEET1_RT_T0_SB_S8_, symObjAddr: 0x198C, symBinAddr: 0x10000D36C, symSize: 0x78 }
  - { offsetInCU: 0x4710, offset: 0x3ABB7, size: 0x8, addend: 0x0, symName: __ZNSt3__14swapB7v160006IPP8MenuItemEENS_9enable_ifIXaasr21is_move_constructibleIT_EE5valuesr18is_move_assignableIS5_EE5valueEvE4typeERS5_S8_, symObjAddr: 0x1A50, symBinAddr: 0x10000D430, symSize: 0x3C }
  - { offsetInCU: 0x4762, offset: 0x3AC09, size: 0x8, addend: 0x0, symName: __ZNSt3__125__debug_db_invalidate_allB7v160006INS_6vectorIP8MenuItemNS_9allocatorIS3_EEEEEEvPT_, symObjAddr: 0x1B38, symBinAddr: 0x10000D518, symSize: 0x10 }
  - { offsetInCU: 0x4793, offset: 0x3AC3A, size: 0x8, addend: 0x0, symName: __ZNSt3__14moveB7v160006INS_16reverse_iteratorIPP8MenuItemEES5_EET0_T_S7_S6_, symObjAddr: 0x1B48, symBinAddr: 0x10000D528, symSize: 0x78 }
  - { offsetInCU: 0x47EE, offset: 0x3AC95, size: 0x8, addend: 0x0, symName: __ZNSt3__16__moveB7v160006INS_17_ClassicAlgPolicyENS_16reverse_iteratorIPP8MenuItemEES6_S6_EENS_4pairIT0_T2_EES8_T1_S9_, symObjAddr: 0x1BC0, symBinAddr: 0x10000D5A0, symSize: 0x64 }
  - { offsetInCU: 0x485B, offset: 0x3AD02, size: 0x8, addend: 0x0, symName: __ZNSt3__123__dispatch_copy_or_moveB7v160006INS_17_ClassicAlgPolicyENS_11__move_loopIS1_EENS_14__move_trivialENS_16reverse_iteratorIPP8MenuItemEES9_S9_EENS_4pairIT2_T4_EESB_T3_SC_, symObjAddr: 0x1C24, symBinAddr: 0x10000D604, symSize: 0x64 }
  - { offsetInCU: 0x48DA, offset: 0x3AD81, size: 0x8, addend: 0x0, symName: __ZNSt3__121__unwrap_and_dispatchB7v160006INS_10__overloadINS_11__move_loopINS_17_ClassicAlgPolicyEEENS_14__move_trivialEEENS_16reverse_iteratorIPP8MenuItemEESB_SB_Li0EEENS_4pairIT0_T2_EESD_T1_SE_, symObjAddr: 0x1C88, symBinAddr: 0x10000D668, symSize: 0x12C }
  - { offsetInCU: 0x496D, offset: 0x3AE14, size: 0x8, addend: 0x0, symName: __ZNSt3__114__unwrap_rangeB7v160006INS_16reverse_iteratorIPP8MenuItemEES5_EENS_4pairIT0_S7_EET_S9_, symObjAddr: 0x1DB4, symBinAddr: 0x10000D794, symSize: 0x84 }
  - { offsetInCU: 0x4AE1, offset: 0x3AF88, size: 0x8, addend: 0x0, symName: __ZNSt3__113__unwrap_iterB7v160006INS_16reverse_iteratorIPP8MenuItemEENS_18__unwrap_iter_implIS5_Lb0EEELi0EEEDTclsrT0_8__unwrapclsr3stdE7declvalIT_EEEES9_, symObjAddr: 0x1ED8, symBinAddr: 0x10000D8B8, symSize: 0x44 }
  - { offsetInCU: 0x4B26, offset: 0x3AFCD, size: 0x8, addend: 0x0, symName: __ZNSt3__19make_pairB7v160006INS_16reverse_iteratorIPP8MenuItemEES5_EENS_4pairINS_18__unwrap_ref_decayIT_E4typeENS7_IT0_E4typeEEEOS8_OSB_, symObjAddr: 0x1F1C, symBinAddr: 0x10000D8FC, symSize: 0x38 }
  - { offsetInCU: 0x4B75, offset: 0x3B01C, size: 0x8, addend: 0x0, symName: __ZNSt3__114__rewrap_rangeB7v160006INS_16reverse_iteratorIPP8MenuItemEES5_EET_S6_T0_, symObjAddr: 0x1F54, symBinAddr: 0x10000D934, symSize: 0x5C }
  - { offsetInCU: 0x4BC2, offset: 0x3B069, size: 0x8, addend: 0x0, symName: __ZNSt3__113__rewrap_iterB7v160006INS_16reverse_iteratorIPP8MenuItemEES5_NS_18__unwrap_iter_implIS5_Lb0EEEEET_S8_T0_, symObjAddr: 0x1FB0, symBinAddr: 0x10000D990, symSize: 0x74 }
  - { offsetInCU: 0x4C18, offset: 0x3B0BF, size: 0x8, addend: 0x0, symName: __ZNSt3__1neB7v160006IPP8MenuItemS3_EEbRKNS_16reverse_iteratorIT_EERKNS4_IT0_EE, symObjAddr: 0x2024, symBinAddr: 0x10000DA04, symSize: 0x48 }
  - { offsetInCU: 0x4D18, offset: 0x3B1BF, size: 0x8, addend: 0x0, symName: __ZNSt3__118__constexpr_memcmpB7v160006IcEEiPKT_S3_m, symObjAddr: 0x26C8, symBinAddr: 0x10000DE94, symSize: 0x34 }
  - { offsetInCU: 0x4D6A, offset: 0x3B211, size: 0x8, addend: 0x0, symName: __ZNSt3__18distanceB7v160006IPP8MenuItemEENS_15iterator_traitsIT_E15difference_typeES5_S5_, symObjAddr: 0x28B8, symBinAddr: 0x10000E084, symSize: 0x2C }
  - { offsetInCU: 0x4DAE, offset: 0x3B255, size: 0x8, addend: 0x0, symName: __ZNSt3__14copyB7v160006IPP8MenuItemS3_EET0_T_S5_S4_, symObjAddr: 0x2934, symBinAddr: 0x10000E100, symSize: 0x40 }
  - { offsetInCU: 0x4E09, offset: 0x3B2B0, size: 0x8, addend: 0x0, symName: __ZNSt3__110__distanceB7v160006IPP8MenuItemEENS_15iterator_traitsIT_E15difference_typeES5_S5_NS_26random_access_iterator_tagE, symObjAddr: 0x2B98, symBinAddr: 0x10000E364, symSize: 0x28 }
  - { offsetInCU: 0x4E56, offset: 0x3B2FD, size: 0x8, addend: 0x0, symName: __ZNSt3__121__convert_to_integralB7v160006Em, symObjAddr: 0x2BC0, symBinAddr: 0x10000E38C, symSize: 0x14 }
  - { offsetInCU: 0x4E82, offset: 0x3B329, size: 0x8, addend: 0x0, symName: __ZNSt3__19__advanceB7v160006IPP8MenuItemEEvRT_NS_15iterator_traitsIS4_E15difference_typeENS_26random_access_iterator_tagE, symObjAddr: 0x2BD4, symBinAddr: 0x10000E3A0, symSize: 0x28 }
  - { offsetInCU: 0x4ECB, offset: 0x3B372, size: 0x8, addend: 0x0, symName: __ZNSt3__16__copyB7v160006INS_17_ClassicAlgPolicyEPP8MenuItemS4_S4_EENS_4pairIT0_T2_EES6_T1_S7_, symObjAddr: 0x2BFC, symBinAddr: 0x10000E3C8, symSize: 0x44 }
  - { offsetInCU: 0x4F38, offset: 0x3B3DF, size: 0x8, addend: 0x0, symName: __ZNSt3__123__dispatch_copy_or_moveB7v160006INS_17_ClassicAlgPolicyENS_11__copy_loopIS1_EENS_14__copy_trivialEPP8MenuItemS7_S7_EENS_4pairIT2_T4_EES9_T3_SA_, symObjAddr: 0x2C40, symBinAddr: 0x10000E40C, symSize: 0x44 }
  - { offsetInCU: 0x4FB7, offset: 0x3B45E, size: 0x8, addend: 0x0, symName: __ZNSt3__121__unwrap_and_dispatchB7v160006INS_10__overloadINS_11__copy_loopINS_17_ClassicAlgPolicyEEENS_14__copy_trivialEEEPP8MenuItemS9_S9_Li0EEENS_4pairIT0_T2_EESB_T1_SC_, symObjAddr: 0x2C84, symBinAddr: 0x10000E450, symSize: 0xB4 }
  - { offsetInCU: 0x5048, offset: 0x3B4EF, size: 0x8, addend: 0x0, symName: __ZNSt3__114__unwrap_rangeB7v160006IPP8MenuItemS3_EENS_4pairIT0_S5_EET_S7_, symObjAddr: 0x2D38, symBinAddr: 0x10000E504, symSize: 0x60 }
  - { offsetInCU: 0x51E0, offset: 0x3B687, size: 0x8, addend: 0x0, symName: __ZNSt3__113__unwrap_iterB7v160006IPP8MenuItemNS_18__unwrap_iter_implIS3_Lb1EEELi0EEEDTclsrT0_8__unwrapclsr3stdE7declvalIT_EEEES7_, symObjAddr: 0x2DE0, symBinAddr: 0x10000E5AC, symSize: 0x24 }
  - { offsetInCU: 0x5225, offset: 0x3B6CC, size: 0x8, addend: 0x0, symName: __ZNSt3__19make_pairB7v160006IPP8MenuItemS3_EENS_4pairINS_18__unwrap_ref_decayIT_E4typeENS5_IT0_E4typeEEEOS6_OS9_, symObjAddr: 0x2E04, symBinAddr: 0x10000E5D0, symSize: 0x38 }
  - { offsetInCU: 0x5274, offset: 0x3B71B, size: 0x8, addend: 0x0, symName: __ZNSt3__114__rewrap_rangeB7v160006IPP8MenuItemS3_EET_S4_T0_, symObjAddr: 0x2E3C, symBinAddr: 0x10000E608, symSize: 0x2C }
  - { offsetInCU: 0x52C1, offset: 0x3B768, size: 0x8, addend: 0x0, symName: __ZNSt3__113__rewrap_iterB7v160006IPP8MenuItemS3_NS_18__unwrap_iter_implIS3_Lb1EEEEET_S6_T0_, symObjAddr: 0x2E68, symBinAddr: 0x10000E634, symSize: 0x3C }
  - { offsetInCU: 0x5317, offset: 0x3B7BE, size: 0x8, addend: 0x0, symName: __ZNSt3__119__copy_trivial_implB7v160006IP8MenuItemS2_EENS_4pairIPT_PT0_EES5_S5_S7_, symObjAddr: 0x2EA4, symBinAddr: 0x10000E670, symSize: 0x84 }
  - { offsetInCU: 0x5381, offset: 0x3B828, size: 0x8, addend: 0x0, symName: __ZNSt3__19make_pairB7v160006IRPP8MenuItemS3_EENS_4pairINS_18__unwrap_ref_decayIT_E4typeENS6_IT0_E4typeEEEOS7_OSA_, symObjAddr: 0x2F28, symBinAddr: 0x10000E6F4, symSize: 0x38 }
  - { offsetInCU: 0x5423, offset: 0x3B8CA, size: 0x8, addend: 0x0, symName: __ZNSt3__130__uninitialized_allocator_copyB7v160006INS_9allocatorIP8MenuItemEEPS3_S5_S5_EET2_RT_T0_T1_S6_, symObjAddr: 0x30B4, symBinAddr: 0x10000E880, symSize: 0xF4 }
  - { offsetInCU: 0x54C1, offset: 0x3B968, size: 0x8, addend: 0x0, symName: __ZNSt3__122__make_exception_guardB7v160006INS_29_AllocatorDestroyRangeReverseINS_9allocatorIP8MenuItemEEPS4_EEEENS_28__exception_guard_exceptionsIT_EES9_, symObjAddr: 0x31A8, symBinAddr: 0x10000E974, symSize: 0x4C }
  - { offsetInCU: 0x54F8, offset: 0x3B99F, size: 0x8, addend: 0x0, symName: __ZNSt3__119__allocator_destroyB7v160006INS_9allocatorIP8MenuItemEENS_16reverse_iteratorIPS3_EES7_EEvRT_T0_T1_, symObjAddr: 0x3430, symBinAddr: 0x10000EBFC, symSize: 0x70 }
  - { offsetInCU: 0x555C, offset: 0x3BA03, size: 0x8, addend: 0x0, symName: __ZNSt3__112__to_addressB7v160006INS_16reverse_iteratorIPP8MenuItemEEvEENS_5decayIDTclsr19__to_address_helperIT_EE6__callclsr3stdE7declvalIRKS7_EEEEE4typeES9_, symObjAddr: 0x34A0, symBinAddr: 0x10000EC6C, symSize: 0x24 }
  - { offsetInCU: 0x5969, offset: 0x3BE10, size: 0x8, addend: 0x0, symName: __ZNSt3__16vectorIP8MenuItemNS_9allocatorIS2_EEE26__swap_out_circular_bufferERNS_14__split_bufferIS2_RS4_EE, symObjAddr: 0x11BC, symBinAddr: 0x10000CE50, symSize: 0x118 }
  - { offsetInCU: 0x7AFD, offset: 0x3DFA4, size: 0x8, addend: 0x0, symName: __ZN5OrderC2EP15RestaurantTable, symObjAddr: 0x0, symBinAddr: 0x10000BD1C, symSize: 0x3C }
  - { offsetInCU: 0x7B35, offset: 0x3DFDC, size: 0x8, addend: 0x0, symName: __ZNSt3__16vectorIP8MenuItemNS_9allocatorIS2_EEEC1B7v160006Ev, symObjAddr: 0x3C, symBinAddr: 0x10000BD58, symSize: 0x2C }
  - { offsetInCU: 0x7B5D, offset: 0x3E004, size: 0x8, addend: 0x0, symName: __ZN5OrderC1EP15RestaurantTable, symObjAddr: 0x68, symBinAddr: 0x10000BD84, symSize: 0x34 }
  - { offsetInCU: 0x7B95, offset: 0x3E03C, size: 0x8, addend: 0x0, symName: __ZN5Order7addItemEP8MenuItem, symObjAddr: 0x9C, symBinAddr: 0x10000BDB8, symSize: 0x58 }
  - { offsetInCU: 0x7BC9, offset: 0x3E070, size: 0x8, addend: 0x0, symName: __ZN5Order6inMenuEP8MenuItem, symObjAddr: 0xF4, symBinAddr: 0x10000BE10, symSize: 0x104 }
  - { offsetInCU: 0x7C4E, offset: 0x3E0F5, size: 0x8, addend: 0x0, symName: __ZNSt3__16vectorIP8MenuItemNS_9allocatorIS2_EEE9push_backB7v160006ERKS2_, symObjAddr: 0x1F8, symBinAddr: 0x10000BF14, symSize: 0x6C }
  - { offsetInCU: 0x7C84, offset: 0x3E12B, size: 0x8, addend: 0x0, symName: __ZNSt3__16vectorIP8MenuItemNS_9allocatorIS2_EEE5beginB7v160006Ev, symObjAddr: 0x264, symBinAddr: 0x10000BF80, symSize: 0x30 }
  - { offsetInCU: 0x7CAB, offset: 0x3E152, size: 0x8, addend: 0x0, symName: __ZNSt3__16vectorIP8MenuItemNS_9allocatorIS2_EEE3endB7v160006Ev, symObjAddr: 0x294, symBinAddr: 0x10000BFB0, symSize: 0x30 }
  - { offsetInCU: 0x7CD2, offset: 0x3E179, size: 0x8, addend: 0x0, symName: __ZNKSt3__111__wrap_iterIPP8MenuItemEdeB7v160006Ev, symObjAddr: 0x2F8, symBinAddr: 0x10000C014, symSize: 0x18 }
  - { offsetInCU: 0x7CF7, offset: 0x3E19E, size: 0x8, addend: 0x0, symName: __ZNSt3__111__wrap_iterIPP8MenuItemEppB7v160006Ev, symObjAddr: 0x458, symBinAddr: 0x10000C174, symSize: 0x20 }
  - { offsetInCU: 0x7D1C, offset: 0x3E1C3, size: 0x8, addend: 0x0, symName: __ZN5Order9setStatusEb, symObjAddr: 0x478, symBinAddr: 0x10000C194, symSize: 0x2C }
  - { offsetInCU: 0x7D50, offset: 0x3E1F7, size: 0x8, addend: 0x0, symName: __ZN5Order10removeItemENSt3__112basic_stringIcNS0_11char_traitsIcEENS0_9allocatorIcEEEE, symObjAddr: 0x4A4, symBinAddr: 0x10000C1C0, symSize: 0x114 }
  - { offsetInCU: 0x7DE0, offset: 0x3E287, size: 0x8, addend: 0x0, symName: __ZNSt3__16vectorIP8MenuItemNS_9allocatorIS2_EEEaSB7v160006ERKS5_, symObjAddr: 0x5EC, symBinAddr: 0x10000C308, symSize: 0x68 }
  - { offsetInCU: 0x7E16, offset: 0x3E2BD, size: 0x8, addend: 0x0, symName: __ZNSt3__16vectorIP8MenuItemNS_9allocatorIS2_EEED1B7v160006Ev, symObjAddr: 0x654, symBinAddr: 0x10000C370, symSize: 0x2C }
  - { offsetInCU: 0x7E3E, offset: 0x3E2E5, size: 0x8, addend: 0x0, symName: __ZN5Order8getTableEv, symObjAddr: 0x680, symBinAddr: 0x10000C39C, symSize: 0x18 }
  - { offsetInCU: 0x7E64, offset: 0x3E30B, size: 0x8, addend: 0x0, symName: __ZNKSt3__111__wrap_iterIPP8MenuItemE4baseB7v160006Ev, symObjAddr: 0x6E0, symBinAddr: 0x10000C3FC, symSize: 0x18 }
  - { offsetInCU: 0x7E89, offset: 0x3E330, size: 0x8, addend: 0x0, symName: __ZNSt3__16vectorIP8MenuItemNS_9allocatorIS2_EEEC2B7v160006Ev, symObjAddr: 0x6F8, symBinAddr: 0x10000C414, symSize: 0x58 }
  - { offsetInCU: 0x7EBB, offset: 0x3E362, size: 0x8, addend: 0x0, symName: __ZNSt3__117__compressed_pairIPP8MenuItemNS_9allocatorIS2_EEEC1B7v160006IDnNS_18__default_init_tagEEEOT_OT0_, symObjAddr: 0x750, symBinAddr: 0x10000C46C, symSize: 0x3C }
  - { offsetInCU: 0x7F11, offset: 0x3E3B8, size: 0x8, addend: 0x0, symName: __ZNSt3__117__compressed_pairIPP8MenuItemNS_9allocatorIS2_EEEC2B7v160006IDnNS_18__default_init_tagEEEOT_OT0_, symObjAddr: 0x7A8, symBinAddr: 0x10000C4B8, symSize: 0x40 }
  - { offsetInCU: 0x7F67, offset: 0x3E40E, size: 0x8, addend: 0x0, symName: __ZNSt3__122__compressed_pair_elemIPP8MenuItemLi0ELb0EEC2B7v160006IDnvEEOT_, symObjAddr: 0x7E8, symBinAddr: 0x10000C4F8, symSize: 0x1C }
  - { offsetInCU: 0x7FA7, offset: 0x3E44E, size: 0x8, addend: 0x0, symName: __ZNSt3__122__compressed_pair_elemINS_9allocatorIP8MenuItemEELi1ELb1EEC2B7v160006ENS_18__default_init_tagE, symObjAddr: 0x804, symBinAddr: 0x10000C514, symSize: 0x2C }
  - { offsetInCU: 0x7FD9, offset: 0x3E480, size: 0x8, addend: 0x0, symName: __ZNSt3__19allocatorIP8MenuItemEC2B7v160006Ev, symObjAddr: 0x830, symBinAddr: 0x10000C540, symSize: 0x2C }
  - { offsetInCU: 0x8001, offset: 0x3E4A8, size: 0x8, addend: 0x0, symName: __ZNSt3__116__non_trivial_ifILb1ENS_9allocatorIP8MenuItemEEEC2B7v160006Ev, symObjAddr: 0x85C, symBinAddr: 0x10000C56C, symSize: 0x14 }
  - { offsetInCU: 0x8029, offset: 0x3E4D0, size: 0x8, addend: 0x0, symName: __ZNSt3__16vectorIP8MenuItemNS_9allocatorIS2_EEED2B7v160006Ev, symObjAddr: 0x870, symBinAddr: 0x10000C580, symSize: 0x44 }
  - { offsetInCU: 0x8051, offset: 0x3E4F8, size: 0x8, addend: 0x0, symName: __ZNSt3__16vectorIP8MenuItemNS_9allocatorIS2_EEE16__destroy_vectorC1ERS5_, symObjAddr: 0x8B4, symBinAddr: 0x10000C5C4, symSize: 0x34 }
  - { offsetInCU: 0x8088, offset: 0x3E52F, size: 0x8, addend: 0x0, symName: __ZNSt3__16vectorIP8MenuItemNS_9allocatorIS2_EEE16__destroy_vectorclB7v160006Ev, symObjAddr: 0x8E8, symBinAddr: 0x10000C5F8, symSize: 0x9C }
  - { offsetInCU: 0x80AD, offset: 0x3E554, size: 0x8, addend: 0x0, symName: __ZNSt3__16vectorIP8MenuItemNS_9allocatorIS2_EEE16__destroy_vectorC2ERS5_, symObjAddr: 0x984, symBinAddr: 0x10000C694, symSize: 0x20 }
  - { offsetInCU: 0x80E4, offset: 0x3E58B, size: 0x8, addend: 0x0, symName: __ZNKSt3__16vectorIP8MenuItemNS_9allocatorIS2_EEE17__annotate_deleteB7v160006Ev, symObjAddr: 0x9A4, symBinAddr: 0x10000C6B4, symSize: 0xB8 }
  - { offsetInCU: 0x8109, offset: 0x3E5B0, size: 0x8, addend: 0x0, symName: __ZNSt3__16vectorIP8MenuItemNS_9allocatorIS2_EEE7__clearB7v160006Ev, symObjAddr: 0xA6C, symBinAddr: 0x10000C77C, symSize: 0x28 }
  - { offsetInCU: 0x812F, offset: 0x3E5D6, size: 0x8, addend: 0x0, symName: __ZNSt3__116allocator_traitsINS_9allocatorIP8MenuItemEEE10deallocateB7v160006ERS4_PS3_m, symObjAddr: 0xA94, symBinAddr: 0x10000C7A4, symSize: 0x34 }
  - { offsetInCU: 0x8170, offset: 0x3E617, size: 0x8, addend: 0x0, symName: __ZNSt3__16vectorIP8MenuItemNS_9allocatorIS2_EEE7__allocB7v160006Ev, symObjAddr: 0xAC8, symBinAddr: 0x10000C7D8, symSize: 0x28 }
  - { offsetInCU: 0x8195, offset: 0x3E63C, size: 0x8, addend: 0x0, symName: __ZNKSt3__16vectorIP8MenuItemNS_9allocatorIS2_EEE8capacityB7v160006Ev, symObjAddr: 0xAF0, symBinAddr: 0x10000C800, symSize: 0x40 }
  - { offsetInCU: 0x81BA, offset: 0x3E661, size: 0x8, addend: 0x0, symName: __ZNKSt3__16vectorIP8MenuItemNS_9allocatorIS2_EEE31__annotate_contiguous_containerB7v160006EPKvS7_S7_S7_, symObjAddr: 0xB30, symBinAddr: 0x10000C840, symSize: 0x20 }
  - { offsetInCU: 0x820F, offset: 0x3E6B6, size: 0x8, addend: 0x0, symName: __ZNKSt3__16vectorIP8MenuItemNS_9allocatorIS2_EEE4dataB7v160006Ev, symObjAddr: 0xB50, symBinAddr: 0x10000C860, symSize: 0x28 }
  - { offsetInCU: 0x8234, offset: 0x3E6DB, size: 0x8, addend: 0x0, symName: __ZNKSt3__16vectorIP8MenuItemNS_9allocatorIS2_EEE4sizeB7v160006Ev, symObjAddr: 0xB78, symBinAddr: 0x10000C888, symSize: 0x28 }
  - { offsetInCU: 0x8259, offset: 0x3E700, size: 0x8, addend: 0x0, symName: __ZNSt3__16vectorIP8MenuItemNS_9allocatorIS2_EEE22__base_destruct_at_endB7v160006EPS2_, symObjAddr: 0xBB4, symBinAddr: 0x10000C8C4, symSize: 0x8C }
  - { offsetInCU: 0x829D, offset: 0x3E744, size: 0x8, addend: 0x0, symName: __ZNSt3__116allocator_traitsINS_9allocatorIP8MenuItemEEE7destroyB7v160006IS3_vEEvRS4_PT_, symObjAddr: 0xC40, symBinAddr: 0x10000C950, symSize: 0x2C }
  - { offsetInCU: 0x82D9, offset: 0x3E780, size: 0x8, addend: 0x0, symName: __ZNSt3__19allocatorIP8MenuItemE7destroyB7v160006EPS2_, symObjAddr: 0xC6C, symBinAddr: 0x10000C97C, symSize: 0x14 }
  - { offsetInCU: 0x830C, offset: 0x3E7B3, size: 0x8, addend: 0x0, symName: __ZNSt3__19allocatorIP8MenuItemE10deallocateB7v160006EPS2_m, symObjAddr: 0xC80, symBinAddr: 0x10000C990, symSize: 0x40 }
  - { offsetInCU: 0x834D, offset: 0x3E7F4, size: 0x8, addend: 0x0, symName: __ZNSt3__117__compressed_pairIPP8MenuItemNS_9allocatorIS2_EEE6secondB7v160006Ev, symObjAddr: 0xD3C, symBinAddr: 0x10000C9D0, symSize: 0x24 }
  - { offsetInCU: 0x8372, offset: 0x3E819, size: 0x8, addend: 0x0, symName: __ZNSt3__122__compressed_pair_elemINS_9allocatorIP8MenuItemEELi1ELb1EE5__getB7v160006Ev, symObjAddr: 0xD60, symBinAddr: 0x10000C9F4, symSize: 0x14 }
  - { offsetInCU: 0x8397, offset: 0x3E83E, size: 0x8, addend: 0x0, symName: __ZNKSt3__16vectorIP8MenuItemNS_9allocatorIS2_EEE9__end_capB7v160006Ev, symObjAddr: 0xD74, symBinAddr: 0x10000CA08, symSize: 0x28 }
  - { offsetInCU: 0x83BC, offset: 0x3E863, size: 0x8, addend: 0x0, symName: __ZNKSt3__117__compressed_pairIPP8MenuItemNS_9allocatorIS2_EEE5firstB7v160006Ev, symObjAddr: 0xD9C, symBinAddr: 0x10000CA30, symSize: 0x24 }
  - { offsetInCU: 0x83E1, offset: 0x3E888, size: 0x8, addend: 0x0, symName: __ZNKSt3__122__compressed_pair_elemIPP8MenuItemLi0ELb0EE5__getB7v160006Ev, symObjAddr: 0xDC0, symBinAddr: 0x10000CA54, symSize: 0x14 }
  - { offsetInCU: 0x8406, offset: 0x3E8AD, size: 0x8, addend: 0x0, symName: __ZNSt3__16vectorIP8MenuItemNS_9allocatorIS2_EEE9__end_capB7v160006Ev, symObjAddr: 0xDD4, symBinAddr: 0x10000CA68, symSize: 0x28 }
  - { offsetInCU: 0x842B, offset: 0x3E8D2, size: 0x8, addend: 0x0, symName: __ZNSt3__16vectorIP8MenuItemNS_9allocatorIS2_EEE22__construct_one_at_endB7v160006IJRKS2_EEEvDpOT_, symObjAddr: 0xDFC, symBinAddr: 0x10000CA90, symSize: 0x90 }
  - { offsetInCU: 0x8479, offset: 0x3E920, size: 0x8, addend: 0x0, symName: __ZNSt3__16vectorIP8MenuItemNS_9allocatorIS2_EEE21__push_back_slow_pathIRKS2_EEvOT_, symObjAddr: 0xE8C, symBinAddr: 0x10000CB20, symSize: 0xD8 }
  - { offsetInCU: 0x84D6, offset: 0x3E97D, size: 0x8, addend: 0x0, symName: __ZNSt3__117__compressed_pairIPP8MenuItemNS_9allocatorIS2_EEE5firstB7v160006Ev, symObjAddr: 0xF64, symBinAddr: 0x10000CBF8, symSize: 0x24 }
  - { offsetInCU: 0x84FB, offset: 0x3E9A2, size: 0x8, addend: 0x0, symName: __ZNSt3__122__compressed_pair_elemIPP8MenuItemLi0ELb0EE5__getB7v160006Ev, symObjAddr: 0xF88, symBinAddr: 0x10000CC1C, symSize: 0x14 }
  - { offsetInCU: 0x8539, offset: 0x3E9E0, size: 0x8, addend: 0x0, symName: __ZNSt3__16vectorIP8MenuItemNS_9allocatorIS2_EEE21_ConstructTransactionC1B7v160006ERS5_m, symObjAddr: 0xF9C, symBinAddr: 0x10000CC30, symSize: 0x3C }
  - { offsetInCU: 0x8580, offset: 0x3EA27, size: 0x8, addend: 0x0, symName: __ZNSt3__116allocator_traitsINS_9allocatorIP8MenuItemEEE9constructB7v160006IS3_JRKS3_EvEEvRS4_PT_DpOT0_, symObjAddr: 0xFD8, symBinAddr: 0x10000CC6C, symSize: 0x34 }
  - { offsetInCU: 0x85D6, offset: 0x3EA7D, size: 0x8, addend: 0x0, symName: __ZNSt3__16vectorIP8MenuItemNS_9allocatorIS2_EEE21_ConstructTransactionD1B7v160006Ev, symObjAddr: 0x100C, symBinAddr: 0x10000CCA0, symSize: 0x2C }
  - { offsetInCU: 0x85FE, offset: 0x3EAA5, size: 0x8, addend: 0x0, symName: __ZNSt3__16vectorIP8MenuItemNS_9allocatorIS2_EEE21_ConstructTransactionC2B7v160006ERS5_m, symObjAddr: 0x1038, symBinAddr: 0x10000CCCC, symSize: 0x44 }
  - { offsetInCU: 0x8644, offset: 0x3EAEB, size: 0x8, addend: 0x0, symName: __ZNSt3__19allocatorIP8MenuItemE9constructB7v160006IS2_JRKS2_EEEvPT_DpOT0_, symObjAddr: 0x107C, symBinAddr: 0x10000CD10, symSize: 0x28 }
  - { offsetInCU: 0x8699, offset: 0x3EB40, size: 0x8, addend: 0x0, symName: __ZNSt3__16vectorIP8MenuItemNS_9allocatorIS2_EEE21_ConstructTransactionD2B7v160006Ev, symObjAddr: 0x10A4, symBinAddr: 0x10000CD38, symSize: 0x20 }
  - { offsetInCU: 0x86C1, offset: 0x3EB68, size: 0x8, addend: 0x0, symName: __ZNKSt3__16vectorIP8MenuItemNS_9allocatorIS2_EEE11__recommendB7v160006Em, symObjAddr: 0x10C4, symBinAddr: 0x10000CD58, symSize: 0xB4 }
  - { offsetInCU: 0x8716, offset: 0x3EBBD, size: 0x8, addend: 0x0, symName: __ZNSt3__114__split_bufferIP8MenuItemRNS_9allocatorIS2_EEEC1EmmS5_, symObjAddr: 0x1178, symBinAddr: 0x10000CE0C, symSize: 0x44 }
  - { offsetInCU: 0x876B, offset: 0x3EC12, size: 0x8, addend: 0x0, symName: __ZNSt3__114__split_bufferIP8MenuItemRNS_9allocatorIS2_EEED1Ev, symObjAddr: 0x12D4, symBinAddr: 0x10000CF68, symSize: 0x2C }
  - { offsetInCU: 0x8795, offset: 0x3EC3C, size: 0x8, addend: 0x0, symName: __ZNKSt3__16vectorIP8MenuItemNS_9allocatorIS2_EEE8max_sizeEv, symObjAddr: 0x1300, symBinAddr: 0x10000CF94, symSize: 0x60 }
  - { offsetInCU: 0x87BC, offset: 0x3EC63, size: 0x8, addend: 0x0, symName: __ZNKSt3__16vectorIP8MenuItemNS_9allocatorIS2_EEE20__throw_length_errorB7v160006Ev, symObjAddr: 0x1360, symBinAddr: 0x10000CFF4, symSize: 0x1C }
  - { offsetInCU: 0x87EC, offset: 0x3EC93, size: 0x8, addend: 0x0, symName: __ZNSt3__116allocator_traitsINS_9allocatorIP8MenuItemEEE8max_sizeB7v160006IS4_vEEmRKS4_, symObjAddr: 0x13D4, symBinAddr: 0x10000D010, symSize: 0x24 }
  - { offsetInCU: 0x8819, offset: 0x3ECC0, size: 0x8, addend: 0x0, symName: __ZNKSt3__16vectorIP8MenuItemNS_9allocatorIS2_EEE7__allocB7v160006Ev, symObjAddr: 0x13F8, symBinAddr: 0x10000D034, symSize: 0x28 }
  - { offsetInCU: 0x883E, offset: 0x3ECE5, size: 0x8, addend: 0x0, symName: __ZNKSt3__19allocatorIP8MenuItemE8max_sizeB7v160006Ev, symObjAddr: 0x14BC, symBinAddr: 0x10000D05C, symSize: 0x14 }
  - { offsetInCU: 0x8863, offset: 0x3ED0A, size: 0x8, addend: 0x0, symName: __ZNKSt3__117__compressed_pairIPP8MenuItemNS_9allocatorIS2_EEE6secondB7v160006Ev, symObjAddr: 0x14D0, symBinAddr: 0x10000D070, symSize: 0x24 }
  - { offsetInCU: 0x8888, offset: 0x3ED2F, size: 0x8, addend: 0x0, symName: __ZNKSt3__122__compressed_pair_elemINS_9allocatorIP8MenuItemEELi1ELb1EE5__getB7v160006Ev, symObjAddr: 0x14F4, symBinAddr: 0x10000D094, symSize: 0x14 }
  - { offsetInCU: 0x88AE, offset: 0x3ED55, size: 0x8, addend: 0x0, symName: __ZNSt3__114__split_bufferIP8MenuItemRNS_9allocatorIS2_EEEC2EmmS5_, symObjAddr: 0x1648, symBinAddr: 0x10000D0A8, symSize: 0xD4 }
  - { offsetInCU: 0x8920, offset: 0x3EDC7, size: 0x8, addend: 0x0, symName: __ZNSt3__117__compressed_pairIPP8MenuItemRNS_9allocatorIS2_EEEC1B7v160006IDnS6_EEOT_OT0_, symObjAddr: 0x171C, symBinAddr: 0x10000D17C, symSize: 0x3C }
  - { offsetInCU: 0x8976, offset: 0x3EE1D, size: 0x8, addend: 0x0, symName: __ZNSt3__114__split_bufferIP8MenuItemRNS_9allocatorIS2_EEE7__allocB7v160006Ev, symObjAddr: 0x1798, symBinAddr: 0x10000D1F8, symSize: 0x28 }
  - { offsetInCU: 0x899B, offset: 0x3EE42, size: 0x8, addend: 0x0, symName: __ZNSt3__114__split_bufferIP8MenuItemRNS_9allocatorIS2_EEE9__end_capB7v160006Ev, symObjAddr: 0x17C0, symBinAddr: 0x10000D220, symSize: 0x28 }
  - { offsetInCU: 0x89C0, offset: 0x3EE67, size: 0x8, addend: 0x0, symName: __ZNSt3__117__compressed_pairIPP8MenuItemRNS_9allocatorIS2_EEEC2B7v160006IDnS6_EEOT_OT0_, symObjAddr: 0x17E8, symBinAddr: 0x10000D248, symSize: 0x48 }
  - { offsetInCU: 0x8A16, offset: 0x3EEBD, size: 0x8, addend: 0x0, symName: __ZNSt3__122__compressed_pair_elemIRNS_9allocatorIP8MenuItemEELi1ELb0EEC2B7v160006IS5_vEEOT_, symObjAddr: 0x1830, symBinAddr: 0x10000D290, symSize: 0x20 }
  - { offsetInCU: 0x8A56, offset: 0x3EEFD, size: 0x8, addend: 0x0, symName: __ZNSt3__19allocatorIP8MenuItemE8allocateB7v160006Em, symObjAddr: 0x1850, symBinAddr: 0x10000D2B0, symSize: 0x58 }
  - { offsetInCU: 0x8A89, offset: 0x3EF30, size: 0x8, addend: 0x0, symName: __ZNSt3__117__compressed_pairIPP8MenuItemRNS_9allocatorIS2_EEE6secondB7v160006Ev, symObjAddr: 0x1928, symBinAddr: 0x10000D308, symSize: 0x28 }
  - { offsetInCU: 0x8AAE, offset: 0x3EF55, size: 0x8, addend: 0x0, symName: __ZNSt3__122__compressed_pair_elemIRNS_9allocatorIP8MenuItemEELi1ELb0EE5__getB7v160006Ev, symObjAddr: 0x1950, symBinAddr: 0x10000D330, symSize: 0x18 }
  - { offsetInCU: 0x8AD3, offset: 0x3EF7A, size: 0x8, addend: 0x0, symName: __ZNSt3__117__compressed_pairIPP8MenuItemRNS_9allocatorIS2_EEE5firstB7v160006Ev, symObjAddr: 0x1968, symBinAddr: 0x10000D348, symSize: 0x24 }
  - { offsetInCU: 0x8AF8, offset: 0x3EF9F, size: 0x8, addend: 0x0, symName: __ZNSt3__116reverse_iteratorIPP8MenuItemEC1B7v160006ES3_, symObjAddr: 0x1A04, symBinAddr: 0x10000D3E4, symSize: 0x34 }
  - { offsetInCU: 0x8B2E, offset: 0x3EFD5, size: 0x8, addend: 0x0, symName: __ZNKSt3__116reverse_iteratorIPP8MenuItemE4baseB7v160006Ev, symObjAddr: 0x1A38, symBinAddr: 0x10000D418, symSize: 0x18 }
  - { offsetInCU: 0x8B53, offset: 0x3EFFA, size: 0x8, addend: 0x0, symName: __ZNKSt3__16vectorIP8MenuItemNS_9allocatorIS2_EEE14__annotate_newB7v160006Em, symObjAddr: 0x1A8C, symBinAddr: 0x10000D46C, symSize: 0xAC }
  - { offsetInCU: 0x8BAA, offset: 0x3F051, size: 0x8, addend: 0x0, symName: __ZNKSt3__111__move_loopINS_17_ClassicAlgPolicyEEclB7v160006INS_16reverse_iteratorIPP8MenuItemEES8_S8_EENS_4pairIT_T1_EESA_T0_SB_, symObjAddr: 0x1E38, symBinAddr: 0x10000D818, symSize: 0xA0 }
  - { offsetInCU: 0x8C1A, offset: 0x3F0C1, size: 0x8, addend: 0x0, symName: __ZNSt3__18_IterOpsINS_17_ClassicAlgPolicyEE11__iter_moveB7v160006IRNS_16reverse_iteratorIPP8MenuItemEEEENS_9enable_ifIXsr12is_referenceIDTdeclsr3stdE7declvalIRT_EEEEE5valueEDTclsr3stdE4movedeclsr3stdE7declvalISC_EEEEE4typeEOSB_, symObjAddr: 0x206C, symBinAddr: 0x10000DA4C, symSize: 0x28 }
  - { offsetInCU: 0x8C45, offset: 0x3F0EC, size: 0x8, addend: 0x0, symName: __ZNKSt3__116reverse_iteratorIPP8MenuItemEdeB7v160006Ev, symObjAddr: 0x2094, symBinAddr: 0x10000DA74, symSize: 0x28 }
  - { offsetInCU: 0x8C79, offset: 0x3F120, size: 0x8, addend: 0x0, symName: __ZNSt3__116reverse_iteratorIPP8MenuItemEppB7v160006Ev, symObjAddr: 0x20BC, symBinAddr: 0x10000DA9C, symSize: 0x20 }
  - { offsetInCU: 0x8C9F, offset: 0x3F146, size: 0x8, addend: 0x0, symName: __ZNSt3__18_IterOpsINS_17_ClassicAlgPolicyEE25__validate_iter_referenceB7v160006IRNS_16reverse_iteratorIPP8MenuItemEEEEvv, symObjAddr: 0x20DC, symBinAddr: 0x10000DABC, symSize: 0x4 }
  - { offsetInCU: 0x8CBD, offset: 0x3F164, size: 0x8, addend: 0x0, symName: __ZNSt3__118__unwrap_iter_implINS_16reverse_iteratorIPP8MenuItemEELb0EE8__unwrapB7v160006ES5_, symObjAddr: 0x20E0, symBinAddr: 0x10000DAC0, symSize: 0x24 }
  - { offsetInCU: 0x8CE4, offset: 0x3F18B, size: 0x8, addend: 0x0, symName: __ZNSt3__14pairINS_16reverse_iteratorIPP8MenuItemEES5_EC1B7v160006IS5_S5_LPv0EEEOT_OT0_, symObjAddr: 0x2104, symBinAddr: 0x10000DAE4, symSize: 0x3C }
  - { offsetInCU: 0x8D41, offset: 0x3F1E8, size: 0x8, addend: 0x0, symName: __ZNSt3__14pairINS_16reverse_iteratorIPP8MenuItemEES5_EC2B7v160006IS5_S5_LPv0EEEOT_OT0_, symObjAddr: 0x2140, symBinAddr: 0x10000DB20, symSize: 0x34 }
  - { offsetInCU: 0x8D9F, offset: 0x3F246, size: 0x8, addend: 0x0, symName: __ZNSt3__118__unwrap_iter_implINS_16reverse_iteratorIPP8MenuItemEELb0EE8__rewrapB7v160006ES5_S5_, symObjAddr: 0x2174, symBinAddr: 0x10000DB54, symSize: 0x2C }
  - { offsetInCU: 0x8DCB, offset: 0x3F272, size: 0x8, addend: 0x0, symName: __ZNSt3__116reverse_iteratorIPP8MenuItemEC2B7v160006ES3_, symObjAddr: 0x21A0, symBinAddr: 0x10000DB80, symSize: 0x28 }
  - { offsetInCU: 0x8E02, offset: 0x3F2A9, size: 0x8, addend: 0x0, symName: __ZNSt3__114__split_bufferIP8MenuItemRNS_9allocatorIS2_EEED2Ev, symObjAddr: 0x21C8, symBinAddr: 0x10000DBA8, symSize: 0x8C }
  - { offsetInCU: 0x8E2C, offset: 0x3F2D3, size: 0x8, addend: 0x0, symName: __ZNSt3__114__split_bufferIP8MenuItemRNS_9allocatorIS2_EEE5clearB7v160006Ev, symObjAddr: 0x2254, symBinAddr: 0x10000DC34, symSize: 0x28 }
  - { offsetInCU: 0x8E51, offset: 0x3F2F8, size: 0x8, addend: 0x0, symName: __ZNKSt3__114__split_bufferIP8MenuItemRNS_9allocatorIS2_EEE8capacityB7v160006Ev, symObjAddr: 0x227C, symBinAddr: 0x10000DC5C, symSize: 0x40 }
  - { offsetInCU: 0x8E76, offset: 0x3F31D, size: 0x8, addend: 0x0, symName: __ZNSt3__114__split_bufferIP8MenuItemRNS_9allocatorIS2_EEE17__destruct_at_endB7v160006EPS2_, symObjAddr: 0x22BC, symBinAddr: 0x10000DC9C, symSize: 0x2C }
  - { offsetInCU: 0x8EA9, offset: 0x3F350, size: 0x8, addend: 0x0, symName: __ZNSt3__114__split_bufferIP8MenuItemRNS_9allocatorIS2_EEE17__destruct_at_endB7v160006EPS2_NS_17integral_constantIbLb0EEE, symObjAddr: 0x22E8, symBinAddr: 0x10000DCC8, symSize: 0x80 }
  - { offsetInCU: 0x8EE8, offset: 0x3F38F, size: 0x8, addend: 0x0, symName: __ZNKSt3__114__split_bufferIP8MenuItemRNS_9allocatorIS2_EEE9__end_capB7v160006Ev, symObjAddr: 0x2368, symBinAddr: 0x10000DD48, symSize: 0x28 }
  - { offsetInCU: 0x8F0D, offset: 0x3F3B4, size: 0x8, addend: 0x0, symName: __ZNKSt3__117__compressed_pairIPP8MenuItemRNS_9allocatorIS2_EEE5firstB7v160006Ev, symObjAddr: 0x2390, symBinAddr: 0x10000DD70, symSize: 0x24 }
  - { offsetInCU: 0x8F32, offset: 0x3F3D9, size: 0x8, addend: 0x0, symName: __ZNSt3__16vectorIP8MenuItemNS_9allocatorIS2_EEE11__make_iterB7v160006EPS2_, symObjAddr: 0x23B4, symBinAddr: 0x10000DD94, symSize: 0x34 }
  - { offsetInCU: 0x8F66, offset: 0x3F40D, size: 0x8, addend: 0x0, symName: __ZNSt3__111__wrap_iterIPP8MenuItemEC1B7v160006EPKvS3_, symObjAddr: 0x23E8, symBinAddr: 0x10000DDC8, symSize: 0x3C }
  - { offsetInCU: 0x8FAA, offset: 0x3F451, size: 0x8, addend: 0x0, symName: __ZNSt3__111__wrap_iterIPP8MenuItemEC2B7v160006EPKvS3_, symObjAddr: 0x2424, symBinAddr: 0x10000DE04, symSize: 0x24 }
  - { offsetInCU: 0x8FEF, offset: 0x3F496, size: 0x8, addend: 0x0, symName: __ZNSt3__111char_traitsIcE7compareEPKcS3_m, symObjAddr: 0x24FC, symBinAddr: 0x10000DE28, symSize: 0x6C }
  - { offsetInCU: 0x902D, offset: 0x3F4D4, size: 0x8, addend: 0x0, symName: __ZNSt3__16vectorIP8MenuItemNS_9allocatorIS2_EEE19__copy_assign_allocB7v160006ERKS5_, symObjAddr: 0x26FC, symBinAddr: 0x10000DEC8, symSize: 0x2C }
  - { offsetInCU: 0x9061, offset: 0x3F508, size: 0x8, addend: 0x0, symName: __ZNSt3__16vectorIP8MenuItemNS_9allocatorIS2_EEE6assignIPS2_Li0EEEvT_S8_, symObjAddr: 0x2728, symBinAddr: 0x10000DEF4, symSize: 0x17C }
  - { offsetInCU: 0x9100, offset: 0x3F5A7, size: 0x8, addend: 0x0, symName: __ZNSt3__16vectorIP8MenuItemNS_9allocatorIS2_EEE19__copy_assign_allocB7v160006ERKS5_NS_17integral_constantIbLb0EEE, symObjAddr: 0x28A4, symBinAddr: 0x10000E070, symSize: 0x14 }
  - { offsetInCU: 0x913D, offset: 0x3F5E4, size: 0x8, addend: 0x0, symName: __ZNSt3__16vectorIP8MenuItemNS_9allocatorIS2_EEE18__construct_at_endIPS2_Li0EEEvT_S8_m, symObjAddr: 0x2974, symBinAddr: 0x10000E140, symSize: 0x8C }
  - { offsetInCU: 0x91AF, offset: 0x3F656, size: 0x8, addend: 0x0, symName: __ZNSt3__16vectorIP8MenuItemNS_9allocatorIS2_EEE17__destruct_at_endB7v160006EPS2_, symObjAddr: 0x2A00, symBinAddr: 0x10000E1CC, symSize: 0x60 }
  - { offsetInCU: 0x91F2, offset: 0x3F699, size: 0x8, addend: 0x0, symName: __ZNSt3__16vectorIP8MenuItemNS_9allocatorIS2_EEE13__vdeallocateEv, symObjAddr: 0x2A60, symBinAddr: 0x10000E22C, symSize: 0x8C }
  - { offsetInCU: 0x9219, offset: 0x3F6C0, size: 0x8, addend: 0x0, symName: __ZNSt3__16vectorIP8MenuItemNS_9allocatorIS2_EEE11__vallocateB7v160006Em, symObjAddr: 0x2AEC, symBinAddr: 0x10000E2B8, symSize: 0xAC }
  - { offsetInCU: 0x927F, offset: 0x3F726, size: 0x8, addend: 0x0, symName: __ZNKSt3__114__copy_trivialclB7v160006IP8MenuItemS3_Li0EEENS_4pairIPT_PT0_EES6_S6_S8_, symObjAddr: 0x2D98, symBinAddr: 0x10000E564, symSize: 0x48 }
  - { offsetInCU: 0x92EB, offset: 0x3F792, size: 0x8, addend: 0x0, symName: __ZNSt3__14pairIPP8MenuItemS3_EC1B7v160006IRS3_S3_LPv0EEEOT_OT0_, symObjAddr: 0x2F60, symBinAddr: 0x10000E72C, symSize: 0x3C }
  - { offsetInCU: 0x9348, offset: 0x3F7EF, size: 0x8, addend: 0x0, symName: __ZNSt3__14pairIPP8MenuItemS3_EC2B7v160006IRS3_S3_LPv0EEEOT_OT0_, symObjAddr: 0x2F9C, symBinAddr: 0x10000E768, symSize: 0x34 }
  - { offsetInCU: 0x93A6, offset: 0x3F84D, size: 0x8, addend: 0x0, symName: __ZNSt3__118__unwrap_iter_implIPP8MenuItemLb1EE8__unwrapB7v160006ES3_, symObjAddr: 0x2FD0, symBinAddr: 0x10000E79C, symSize: 0x24 }
  - { offsetInCU: 0x93C8, offset: 0x3F86F, size: 0x8, addend: 0x0, symName: __ZNSt3__14pairIPP8MenuItemS3_EC1B7v160006IS3_S3_LPv0EEEOT_OT0_, symObjAddr: 0x2FF4, symBinAddr: 0x10000E7C0, symSize: 0x3C }
  - { offsetInCU: 0x9425, offset: 0x3F8CC, size: 0x8, addend: 0x0, symName: __ZNSt3__14pairIPP8MenuItemS3_EC2B7v160006IS3_S3_LPv0EEEOT_OT0_, symObjAddr: 0x3030, symBinAddr: 0x10000E7FC, symSize: 0x34 }
  - { offsetInCU: 0x9483, offset: 0x3F92A, size: 0x8, addend: 0x0, symName: __ZNSt3__118__unwrap_iter_implIPP8MenuItemLb1EE8__rewrapB7v160006ES3_S3_, symObjAddr: 0x3064, symBinAddr: 0x10000E830, symSize: 0x50 }
  - { offsetInCU: 0x94B3, offset: 0x3F95A, size: 0x8, addend: 0x0, symName: __ZNSt3__129_AllocatorDestroyRangeReverseINS_9allocatorIP8MenuItemEEPS3_EC1B7v160006ERS4_RS5_S8_, symObjAddr: 0x31F4, symBinAddr: 0x10000E9C0, symSize: 0x44 }
  - { offsetInCU: 0x9509, offset: 0x3F9B0, size: 0x8, addend: 0x0, symName: __ZNSt3__116allocator_traitsINS_9allocatorIP8MenuItemEEE9constructB7v160006IS3_JRS3_EvEEvRS4_PT_DpOT0_, symObjAddr: 0x3238, symBinAddr: 0x10000EA04, symSize: 0x34 }
  - { offsetInCU: 0x955F, offset: 0x3FA06, size: 0x8, addend: 0x0, symName: __ZNSt3__128__exception_guard_exceptionsINS_29_AllocatorDestroyRangeReverseINS_9allocatorIP8MenuItemEEPS4_EEE10__completeB7v160006Ev, symObjAddr: 0x326C, symBinAddr: 0x10000EA38, symSize: 0x1C }
  - { offsetInCU: 0x9584, offset: 0x3FA2B, size: 0x8, addend: 0x0, symName: __ZNSt3__128__exception_guard_exceptionsINS_29_AllocatorDestroyRangeReverseINS_9allocatorIP8MenuItemEEPS4_EEED1B7v160006Ev, symObjAddr: 0x3288, symBinAddr: 0x10000EA54, symSize: 0x2C }
  - { offsetInCU: 0x95AC, offset: 0x3FA53, size: 0x8, addend: 0x0, symName: __ZNSt3__128__exception_guard_exceptionsINS_29_AllocatorDestroyRangeReverseINS_9allocatorIP8MenuItemEEPS4_EEEC1B7v160006ES7_, symObjAddr: 0x32B4, symBinAddr: 0x10000EA80, symSize: 0x34 }
  - { offsetInCU: 0x95E3, offset: 0x3FA8A, size: 0x8, addend: 0x0, symName: __ZNSt3__128__exception_guard_exceptionsINS_29_AllocatorDestroyRangeReverseINS_9allocatorIP8MenuItemEEPS4_EEEC2B7v160006ES7_, symObjAddr: 0x32E8, symBinAddr: 0x10000EAB4, symSize: 0x30 }
  - { offsetInCU: 0x961A, offset: 0x3FAC1, size: 0x8, addend: 0x0, symName: __ZNSt3__129_AllocatorDestroyRangeReverseINS_9allocatorIP8MenuItemEEPS3_EC2B7v160006ERS4_RS5_S8_, symObjAddr: 0x3318, symBinAddr: 0x10000EAE4, symSize: 0x38 }
  - { offsetInCU: 0x966F, offset: 0x3FB16, size: 0x8, addend: 0x0, symName: __ZNSt3__19allocatorIP8MenuItemE9constructB7v160006IS2_JRS2_EEEvPT_DpOT0_, symObjAddr: 0x3350, symBinAddr: 0x10000EB1C, symSize: 0x28 }
  - { offsetInCU: 0x96C4, offset: 0x3FB6B, size: 0x8, addend: 0x0, symName: __ZNSt3__128__exception_guard_exceptionsINS_29_AllocatorDestroyRangeReverseINS_9allocatorIP8MenuItemEEPS4_EEED2B7v160006Ev, symObjAddr: 0x3378, symBinAddr: 0x10000EB44, symSize: 0x50 }
  - { offsetInCU: 0x96EC, offset: 0x3FB93, size: 0x8, addend: 0x0, symName: __ZNKSt3__129_AllocatorDestroyRangeReverseINS_9allocatorIP8MenuItemEEPS3_EclB7v160006Ev, symObjAddr: 0x33C8, symBinAddr: 0x10000EB94, symSize: 0x68 }
  - { offsetInCU: 0x9717, offset: 0x3FBBE, size: 0x8, addend: 0x0, symName: __ZNSt3__119__to_address_helperINS_16reverse_iteratorIPP8MenuItemEEvE6__callB7v160006ERKS5_, symObjAddr: 0x34C4, symBinAddr: 0x10000EC90, symSize: 0x38 }
  - { offsetInCU: 0x9739, offset: 0x3FBE0, size: 0x8, addend: 0x0, symName: __ZNKSt3__116reverse_iteratorIPP8MenuItemEptB7v160006Ev, symObjAddr: 0x34FC, symBinAddr: 0x10000ECC8, symSize: 0x24 }
  - { offsetInCU: 0x975F, offset: 0x3FC06, size: 0x8, addend: 0x0, symName: __ZNSt3__16vectorIP8MenuItemNS_9allocatorIS2_EEE27__invalidate_iterators_pastB7v160006EPS2_, symObjAddr: 0x3520, symBinAddr: 0x10000ECEC, symSize: 0x14 }
  - { offsetInCU: 0x9794, offset: 0x3FC3B, size: 0x8, addend: 0x0, symName: __ZNKSt3__16vectorIP8MenuItemNS_9allocatorIS2_EEE17__annotate_shrinkB7v160006Em, symObjAddr: 0x3534, symBinAddr: 0x10000ED00, symSize: 0xB4 }
  - { offsetInCU: 0x97C8, offset: 0x3FC6F, size: 0x8, addend: 0x0, symName: __ZNSt3__16vectorIP8MenuItemNS_9allocatorIS2_EEE5clearB7v160006Ev, symObjAddr: 0x35E8, symBinAddr: 0x10000EDB4, symSize: 0x4C }
  - { offsetInCU: 0x4B79, offset: 0x448A3, size: 0x8, addend: 0x0, symName: __ZN15RestaurantTableC2Ei, symObjAddr: 0x0, symBinAddr: 0x10000EE00, symSize: 0x150 }
  - { offsetInCU: 0x4BB1, offset: 0x448DB, size: 0x8, addend: 0x0, symName: __ZN15RestaurantTableC1Ei, symObjAddr: 0x150, symBinAddr: 0x10000EF50, symSize: 0x34 }
  - { offsetInCU: 0x4BE9, offset: 0x44913, size: 0x8, addend: 0x0, symName: __ZN15RestaurantTableD2Ev, symObjAddr: 0x184, symBinAddr: 0x10000EF84, symSize: 0x58 }
  - { offsetInCU: 0x4C13, offset: 0x4493D, size: 0x8, addend: 0x0, symName: __ZN15RestaurantTableD1Ev, symObjAddr: 0x1DC, symBinAddr: 0x10000EFDC, symSize: 0x2C }
  - { offsetInCU: 0x4C3D, offset: 0x44967, size: 0x8, addend: 0x0, symName: __ZN15RestaurantTable12TransitionToEP5State, symObjAddr: 0x208, symBinAddr: 0x10000F008, symSize: 0xDC }
  - { offsetInCU: 0x4C9E, offset: 0x449C8, size: 0x8, addend: 0x0, symName: __ZNKSt9type_info4nameB7v160006Ev, symObjAddr: 0x32C, symBinAddr: 0x10000F0E4, symSize: 0x24 }
  - { offsetInCU: 0x4CE3, offset: 0x44A0D, size: 0x8, addend: 0x0, symName: __ZN15RestaurantTable8setStateEP5State, symObjAddr: 0x350, symBinAddr: 0x10000F108, symSize: 0x20 }
  - { offsetInCU: 0x4D17, offset: 0x44A41, size: 0x8, addend: 0x0, symName: __ZN15RestaurantTable8getStateEv, symObjAddr: 0x370, symBinAddr: 0x10000F128, symSize: 0x18 }
  - { offsetInCU: 0x4D3D, offset: 0x44A67, size: 0x8, addend: 0x0, symName: __ZN15RestaurantTable6occupyEv, symObjAddr: 0x388, symBinAddr: 0x10000F140, symSize: 0x58 }
  - { offsetInCU: 0x4D63, offset: 0x44A8D, size: 0x8, addend: 0x0, symName: __ZN15RestaurantTable5emptyEv, symObjAddr: 0x464, symBinAddr: 0x10000F198, symSize: 0x30 }
  - { offsetInCU: 0x4D89, offset: 0x44AB3, size: 0x8, addend: 0x0, symName: __ZNK15RestaurantTable9getWaiterEv, symObjAddr: 0x494, symBinAddr: 0x10000F1C8, symSize: 0x18 }
  - { offsetInCU: 0x4DAF, offset: 0x44AD9, size: 0x8, addend: 0x0, symName: __ZN15RestaurantTable9setWaiterEP6Waiter, symObjAddr: 0x4AC, symBinAddr: 0x10000F1E0, symSize: 0x20 }
  - { offsetInCU: 0x4DE3, offset: 0x44B0D, size: 0x8, addend: 0x0, symName: __ZN15RestaurantTable12confirmOrderEv, symObjAddr: 0x4CC, symBinAddr: 0x10000F200, symSize: 0x34 }
  - { offsetInCU: 0x4E09, offset: 0x44B33, size: 0x8, addend: 0x0, symName: __ZN15RestaurantTable10cleanTableEv, symObjAddr: 0x500, symBinAddr: 0x10000F234, symSize: 0x34 }
  - { offsetInCU: 0x4E2F, offset: 0x44B59, size: 0x8, addend: 0x0, symName: __ZN15RestaurantTable10addToOrderEP8MenuItem, symObjAddr: 0x534, symBinAddr: 0x10000F268, symSize: 0x38 }
  - { offsetInCU: 0x4E63, offset: 0x44B8D, size: 0x8, addend: 0x0, symName: __ZNK15RestaurantTable8getOrderEv, symObjAddr: 0x56C, symBinAddr: 0x10000F2A0, symSize: 0x18 }
  - { offsetInCU: 0x4E89, offset: 0x44BB3, size: 0x8, addend: 0x0, symName: __ZNK15RestaurantTable11isAvailableEv, symObjAddr: 0x584, symBinAddr: 0x10000F2B8, symSize: 0x34 }
  - { offsetInCU: 0x4EAF, offset: 0x44BD9, size: 0x8, addend: 0x0, symName: __ZNK15RestaurantTable14getTableNumberEv, symObjAddr: 0x5B8, symBinAddr: 0x10000F2EC, symSize: 0x18 }
  - { offsetInCU: 0x26, offset: 0x44C2F, size: 0x8, addend: 0x0, symName: __ZN5State8setTableEP15RestaurantTable, symObjAddr: 0x0, symBinAddr: 0x10000F304, symSize: 0x20 }
  - { offsetInCU: 0x47B9, offset: 0x493C2, size: 0x8, addend: 0x0, symName: __ZN5State8setTableEP15RestaurantTable, symObjAddr: 0x0, symBinAddr: 0x10000F304, symSize: 0x20 }
  - { offsetInCU: 0x4A9F, offset: 0x4DE9A, size: 0x8, addend: 0x0, symName: __ZN10StateEmptyC2Ev, symObjAddr: 0x0, symBinAddr: 0x10000F324, symSize: 0x90 }
  - { offsetInCU: 0x4AC9, offset: 0x4DEC4, size: 0x8, addend: 0x0, symName: __ZN5StateC2Ev, symObjAddr: 0x90, symBinAddr: 0x10000F3B4, symSize: 0x44 }
  - { offsetInCU: 0x4AF3, offset: 0x4DEEE, size: 0x8, addend: 0x0, symName: __ZNSt3__112basic_stringIcNS_11char_traitsIcEENS_9allocatorIcEEEaSB7v160006EPKc, symObjAddr: 0xD4, symBinAddr: 0x10000F3F8, symSize: 0x2C }
  - { offsetInCU: 0x4B27, offset: 0x4DF22, size: 0x8, addend: 0x0, symName: __ZN5StateD2Ev, symObjAddr: 0x100, symBinAddr: 0x10000F424, symSize: 0x40 }
  - { offsetInCU: 0x4B4F, offset: 0x4DF4A, size: 0x8, addend: 0x0, symName: __ZN10StateEmptyC1Ev, symObjAddr: 0x140, symBinAddr: 0x10000F464, symSize: 0x2C }
  - { offsetInCU: 0x4B79, offset: 0x4DF74, size: 0x8, addend: 0x0, symName: __ZN10StateEmpty6occupyEv, symObjAddr: 0x16C, symBinAddr: 0x10000F490, symSize: 0x94 }
  - { offsetInCU: 0x4B9F, offset: 0x4DF9A, size: 0x8, addend: 0x0, symName: __ZN10StateEmpty5emptyEv, symObjAddr: 0x2CC, symBinAddr: 0x10000F524, symSize: 0x3C }
  - { offsetInCU: 0x4BC5, offset: 0x4DFC0, size: 0x8, addend: 0x0, symName: __ZN10StateEmpty5serveEv, symObjAddr: 0x308, symBinAddr: 0x10000F560, symSize: 0x3C }
  - { offsetInCU: 0x4BEB, offset: 0x4DFE6, size: 0x8, addend: 0x0, symName: __ZN10StateEmpty12getStateNameEv, symObjAddr: 0x344, symBinAddr: 0x10000F59C, symSize: 0x3C }
  - { offsetInCU: 0x4C11, offset: 0x4E00C, size: 0x8, addend: 0x0, symName: __ZN10StateEmpty10isOccupiedEv, symObjAddr: 0x380, symBinAddr: 0x10000F5D8, symSize: 0x18 }
  - { offsetInCU: 0x4C37, offset: 0x4E032, size: 0x8, addend: 0x0, symName: __ZN10StateEmptyD1Ev, symObjAddr: 0x398, symBinAddr: 0x10000F5F0, symSize: 0x2C }
  - { offsetInCU: 0x4C61, offset: 0x4E05C, size: 0x8, addend: 0x0, symName: __ZN10StateEmptyD0Ev, symObjAddr: 0x3C4, symBinAddr: 0x10000F61C, symSize: 0x30 }
  - { offsetInCU: 0x4C8B, offset: 0x4E086, size: 0x8, addend: 0x0, symName: __ZN5StateD1Ev, symObjAddr: 0x420, symBinAddr: 0x10000F64C, symSize: 0x14 }
  - { offsetInCU: 0x4CB3, offset: 0x4E0AE, size: 0x8, addend: 0x0, symName: __ZN5StateD0Ev, symObjAddr: 0x434, symBinAddr: 0x10000F660, symSize: 0xC }
  - { offsetInCU: 0x4CDB, offset: 0x4E0D6, size: 0x8, addend: 0x0, symName: __ZN10StateEmptyD2Ev, symObjAddr: 0x620, symBinAddr: 0x10000F66C, symSize: 0x2C }
  - { offsetInCU: 0x4A9F, offset: 0x52BA9, size: 0x8, addend: 0x0, symName: __ZN13StateOccupiedC2Ev, symObjAddr: 0x0, symBinAddr: 0x10000F698, symSize: 0x90 }
  - { offsetInCU: 0x4AC9, offset: 0x52BD3, size: 0x8, addend: 0x0, symName: __ZN13StateOccupiedC1Ev, symObjAddr: 0x140, symBinAddr: 0x10000F728, symSize: 0x2C }
  - { offsetInCU: 0x4AF3, offset: 0x52BFD, size: 0x8, addend: 0x0, symName: __ZN13StateOccupied6occupyEv, symObjAddr: 0x16C, symBinAddr: 0x10000F754, symSize: 0x3C }
  - { offsetInCU: 0x4B19, offset: 0x52C23, size: 0x8, addend: 0x0, symName: __ZN13StateOccupied5emptyEv, symObjAddr: 0x274, symBinAddr: 0x10000F790, symSize: 0x94 }
  - { offsetInCU: 0x4B3F, offset: 0x52C49, size: 0x8, addend: 0x0, symName: __ZN13StateOccupied5serveEv, symObjAddr: 0x308, symBinAddr: 0x10000F824, symSize: 0x94 }
  - { offsetInCU: 0x4B65, offset: 0x52C6F, size: 0x8, addend: 0x0, symName: __ZN13StateOccupied12getStateNameEv, symObjAddr: 0x39C, symBinAddr: 0x10000F8B8, symSize: 0x3C }
  - { offsetInCU: 0x4B8B, offset: 0x52C95, size: 0x8, addend: 0x0, symName: __ZN13StateOccupied10isOccupiedEv, symObjAddr: 0x3D8, symBinAddr: 0x10000F8F4, symSize: 0x18 }
  - { offsetInCU: 0x4BB1, offset: 0x52CBB, size: 0x8, addend: 0x0, symName: __ZN13StateOccupiedD1Ev, symObjAddr: 0x3F0, symBinAddr: 0x10000F90C, symSize: 0x2C }
  - { offsetInCU: 0x4BDB, offset: 0x52CE5, size: 0x8, addend: 0x0, symName: __ZN13StateOccupiedD0Ev, symObjAddr: 0x41C, symBinAddr: 0x10000F938, symSize: 0x30 }
  - { offsetInCU: 0x4C05, offset: 0x52D0F, size: 0x8, addend: 0x0, symName: __ZN13StateOccupiedD2Ev, symObjAddr: 0x678, symBinAddr: 0x10000F968, symSize: 0x2C }
  - { offsetInCU: 0x4A9F, offset: 0x577DD, size: 0x8, addend: 0x0, symName: __ZN10StateServeC2Ev, symObjAddr: 0x0, symBinAddr: 0x10000F994, symSize: 0x90 }
  - { offsetInCU: 0x4AC9, offset: 0x57807, size: 0x8, addend: 0x0, symName: __ZN10StateServeC1Ev, symObjAddr: 0x140, symBinAddr: 0x10000FA24, symSize: 0x2C }
  - { offsetInCU: 0x4AF3, offset: 0x57831, size: 0x8, addend: 0x0, symName: __ZN10StateServe6occupyEv, symObjAddr: 0x16C, symBinAddr: 0x10000FA50, symSize: 0x3C }
  - { offsetInCU: 0x4B19, offset: 0x57857, size: 0x8, addend: 0x0, symName: __ZN10StateServe5emptyEv, symObjAddr: 0x274, symBinAddr: 0x10000FA8C, symSize: 0x94 }
  - { offsetInCU: 0x4B3F, offset: 0x5787D, size: 0x8, addend: 0x0, symName: __ZN10StateServe5serveEv, symObjAddr: 0x308, symBinAddr: 0x10000FB20, symSize: 0x3C }
  - { offsetInCU: 0x4B65, offset: 0x578A3, size: 0x8, addend: 0x0, symName: __ZN10StateServe12getStateNameEv, symObjAddr: 0x344, symBinAddr: 0x10000FB5C, symSize: 0x3C }
  - { offsetInCU: 0x4B8B, offset: 0x578C9, size: 0x8, addend: 0x0, symName: __ZN10StateServe10isOccupiedEv, symObjAddr: 0x380, symBinAddr: 0x10000FB98, symSize: 0x18 }
  - { offsetInCU: 0x4BB1, offset: 0x578EF, size: 0x8, addend: 0x0, symName: __ZN10StateServeD1Ev, symObjAddr: 0x398, symBinAddr: 0x10000FBB0, symSize: 0x2C }
  - { offsetInCU: 0x4BDB, offset: 0x57919, size: 0x8, addend: 0x0, symName: __ZN10StateServeD0Ev, symObjAddr: 0x3C4, symBinAddr: 0x10000FBDC, symSize: 0x30 }
  - { offsetInCU: 0x4C05, offset: 0x57943, size: 0x8, addend: 0x0, symName: __ZN10StateServeD2Ev, symObjAddr: 0x620, symBinAddr: 0x10000FC0C, symSize: 0x2C }
  - { offsetInCU: 0x2A0F, offset: 0x5A381, size: 0x8, addend: 0x0, symName: __ZNSt3__17advanceB7v160006IPP15RestaurantTablemmvEEvRT_T0_, symObjAddr: 0xC64, symBinAddr: 0x100010144, symSize: 0x50 }
  - { offsetInCU: 0x3552, offset: 0x5AEC4, size: 0x8, addend: 0x0, symName: __ZNSt3__18distanceB7v160006IPP15RestaurantTableEENS_15iterator_traitsIT_E15difference_typeES5_S5_, symObjAddr: 0xC38, symBinAddr: 0x100010118, symSize: 0x2C }
  - { offsetInCU: 0x3596, offset: 0x5AF08, size: 0x8, addend: 0x0, symName: __ZNSt3__14copyB7v160006IPP15RestaurantTableS3_EET0_T_S5_S4_, symObjAddr: 0xCB4, symBinAddr: 0x100010194, symSize: 0x40 }
  - { offsetInCU: 0x35F1, offset: 0x5AF63, size: 0x8, addend: 0x0, symName: __ZNSt3__110__distanceB7v160006IPP15RestaurantTableEENS_15iterator_traitsIT_E15difference_typeES5_S5_NS_26random_access_iterator_tagE, symObjAddr: 0xFDC, symBinAddr: 0x1000102C0, symSize: 0x28 }
  - { offsetInCU: 0x363E, offset: 0x5AFB0, size: 0x8, addend: 0x0, symName: __ZNSt3__19__advanceB7v160006IPP15RestaurantTableEEvRT_NS_15iterator_traitsIS4_E15difference_typeENS_26random_access_iterator_tagE, symObjAddr: 0x1018, symBinAddr: 0x1000102E8, symSize: 0x28 }
  - { offsetInCU: 0x3687, offset: 0x5AFF9, size: 0x8, addend: 0x0, symName: __ZNSt3__16__copyB7v160006INS_17_ClassicAlgPolicyEPP15RestaurantTableS4_S4_EENS_4pairIT0_T2_EES6_T1_S7_, symObjAddr: 0x1040, symBinAddr: 0x100010310, symSize: 0x44 }
  - { offsetInCU: 0x36F4, offset: 0x5B066, size: 0x8, addend: 0x0, symName: __ZNSt3__123__dispatch_copy_or_moveB7v160006INS_17_ClassicAlgPolicyENS_11__copy_loopIS1_EENS_14__copy_trivialEPP15RestaurantTableS7_S7_EENS_4pairIT2_T4_EES9_T3_SA_, symObjAddr: 0x1084, symBinAddr: 0x100010354, symSize: 0x44 }
  - { offsetInCU: 0x3773, offset: 0x5B0E5, size: 0x8, addend: 0x0, symName: __ZNSt3__121__unwrap_and_dispatchB7v160006INS_10__overloadINS_11__copy_loopINS_17_ClassicAlgPolicyEEENS_14__copy_trivialEEEPP15RestaurantTableS9_S9_Li0EEENS_4pairIT0_T2_EESB_T1_SC_, symObjAddr: 0x10C8, symBinAddr: 0x100010398, symSize: 0xB4 }
  - { offsetInCU: 0x3804, offset: 0x5B176, size: 0x8, addend: 0x0, symName: __ZNSt3__114__unwrap_rangeB7v160006IPP15RestaurantTableS3_EENS_4pairIT0_S5_EET_S7_, symObjAddr: 0x117C, symBinAddr: 0x10001044C, symSize: 0x60 }
  - { offsetInCU: 0x399C, offset: 0x5B30E, size: 0x8, addend: 0x0, symName: __ZNSt3__113__unwrap_iterB7v160006IPP15RestaurantTableNS_18__unwrap_iter_implIS3_Lb1EEELi0EEEDTclsrT0_8__unwrapclsr3stdE7declvalIT_EEEES7_, symObjAddr: 0x1224, symBinAddr: 0x1000104F4, symSize: 0x24 }
  - { offsetInCU: 0x39E1, offset: 0x5B353, size: 0x8, addend: 0x0, symName: __ZNSt3__19make_pairB7v160006IPP15RestaurantTableS3_EENS_4pairINS_18__unwrap_ref_decayIT_E4typeENS5_IT0_E4typeEEEOS6_OS9_, symObjAddr: 0x1248, symBinAddr: 0x100010518, symSize: 0x38 }
  - { offsetInCU: 0x3A30, offset: 0x5B3A2, size: 0x8, addend: 0x0, symName: __ZNSt3__114__rewrap_rangeB7v160006IPP15RestaurantTableS3_EET_S4_T0_, symObjAddr: 0x1280, symBinAddr: 0x100010550, symSize: 0x2C }
  - { offsetInCU: 0x3A7D, offset: 0x5B3EF, size: 0x8, addend: 0x0, symName: __ZNSt3__113__rewrap_iterB7v160006IPP15RestaurantTableS3_NS_18__unwrap_iter_implIS3_Lb1EEEEET_S6_T0_, symObjAddr: 0x12AC, symBinAddr: 0x10001057C, symSize: 0x3C }
  - { offsetInCU: 0x3AD3, offset: 0x5B445, size: 0x8, addend: 0x0, symName: __ZNSt3__119__copy_trivial_implB7v160006IP15RestaurantTableS2_EENS_4pairIPT_PT0_EES5_S5_S7_, symObjAddr: 0x12E8, symBinAddr: 0x1000105B8, symSize: 0x84 }
  - { offsetInCU: 0x3B3D, offset: 0x5B4AF, size: 0x8, addend: 0x0, symName: __ZNSt3__19make_pairB7v160006IRPP15RestaurantTableS3_EENS_4pairINS_18__unwrap_ref_decayIT_E4typeENS6_IT0_E4typeEEEOS7_OSA_, symObjAddr: 0x136C, symBinAddr: 0x10001063C, symSize: 0x38 }
  - { offsetInCU: 0x5F0F, offset: 0x5D881, size: 0x8, addend: 0x0, symName: __ZN13TableIteratorC2ENSt3__16vectorIP15RestaurantTableNS0_9allocatorIS3_EEEE, symObjAddr: 0x0, symBinAddr: 0x10000FC38, symSize: 0x98 }
  - { offsetInCU: 0x5F48, offset: 0x5D8BA, size: 0x8, addend: 0x0, symName: __ZN8IteratorC2Ev, symObjAddr: 0x98, symBinAddr: 0x10000FCD0, symSize: 0x24 }
  - { offsetInCU: 0x5F72, offset: 0x5D8E4, size: 0x8, addend: 0x0, symName: __ZNSt3__16vectorIP15RestaurantTableNS_9allocatorIS2_EEEaSB7v160006ERKS5_, symObjAddr: 0xE8, symBinAddr: 0x10000FCF4, symSize: 0x68 }
  - { offsetInCU: 0x5FA8, offset: 0x5D91A, size: 0x8, addend: 0x0, symName: __ZN13TableIteratorC1ENSt3__16vectorIP15RestaurantTableNS0_9allocatorIS3_EEEE, symObjAddr: 0x17C, symBinAddr: 0x10000FD5C, symSize: 0x34 }
  - { offsetInCU: 0x5FE1, offset: 0x5D953, size: 0x8, addend: 0x0, symName: __ZN13TableIterator5firstEv, symObjAddr: 0x1B0, symBinAddr: 0x10000FD90, symSize: 0x30 }
  - { offsetInCU: 0x6007, offset: 0x5D979, size: 0x8, addend: 0x0, symName: __ZN13TableIterator11currentItemEv, symObjAddr: 0x204, symBinAddr: 0x10000FDC0, symSize: 0x30 }
  - { offsetInCU: 0x602D, offset: 0x5D99F, size: 0x8, addend: 0x0, symName: __ZN13TableIterator7hasNextEv, symObjAddr: 0x234, symBinAddr: 0x10000FDF0, symSize: 0x74 }
  - { offsetInCU: 0x6053, offset: 0x5D9C5, size: 0x8, addend: 0x0, symName: __ZN13TableIterator4nextEv, symObjAddr: 0x2D0, symBinAddr: 0x10000FE64, symSize: 0xA4 }
  - { offsetInCU: 0x6088, offset: 0x5D9FA, size: 0x8, addend: 0x0, symName: __ZN13TableIterator11isAvailableEP15RestaurantTable, symObjAddr: 0x374, symBinAddr: 0x10000FF08, symSize: 0x54 }
  - { offsetInCU: 0x60BC, offset: 0x5DA2E, size: 0x8, addend: 0x0, symName: __ZNSt3__16vectorIP15RestaurantTableNS_9allocatorIS2_EEE19__copy_assign_allocB7v160006ERKS5_, symObjAddr: 0xA7C, symBinAddr: 0x10000FF5C, symSize: 0x2C }
  - { offsetInCU: 0x60F0, offset: 0x5DA62, size: 0x8, addend: 0x0, symName: __ZNSt3__16vectorIP15RestaurantTableNS_9allocatorIS2_EEE6assignIPS2_Li0EEEvT_S8_, symObjAddr: 0xAA8, symBinAddr: 0x10000FF88, symSize: 0x17C }
  - { offsetInCU: 0x618F, offset: 0x5DB01, size: 0x8, addend: 0x0, symName: __ZNSt3__16vectorIP15RestaurantTableNS_9allocatorIS2_EEE19__copy_assign_allocB7v160006ERKS5_NS_17integral_constantIbLb0EEE, symObjAddr: 0xC24, symBinAddr: 0x100010104, symSize: 0x14 }
  - { offsetInCU: 0x61CC, offset: 0x5DB3E, size: 0x8, addend: 0x0, symName: __ZNSt3__16vectorIP15RestaurantTableNS_9allocatorIS2_EEE17__destruct_at_endB7v160006EPS2_, symObjAddr: 0xD80, symBinAddr: 0x1000101D4, symSize: 0x60 }
  - { offsetInCU: 0x620F, offset: 0x5DB81, size: 0x8, addend: 0x0, symName: __ZNSt3__16vectorIP15RestaurantTableNS_9allocatorIS2_EEE13__vdeallocateEv, symObjAddr: 0xDE0, symBinAddr: 0x100010234, symSize: 0x8C }
  - { offsetInCU: 0x6259, offset: 0x5DBCB, size: 0x8, addend: 0x0, symName: __ZNKSt3__114__copy_trivialclB7v160006IP15RestaurantTableS3_Li0EEENS_4pairIPT_PT0_EES6_S6_S8_, symObjAddr: 0x11DC, symBinAddr: 0x1000104AC, symSize: 0x48 }
  - { offsetInCU: 0x62C5, offset: 0x5DC37, size: 0x8, addend: 0x0, symName: __ZNSt3__14pairIPP15RestaurantTableS3_EC1B7v160006IRS3_S3_LPv0EEEOT_OT0_, symObjAddr: 0x13A4, symBinAddr: 0x100010674, symSize: 0x3C }
  - { offsetInCU: 0x6322, offset: 0x5DC94, size: 0x8, addend: 0x0, symName: __ZNSt3__14pairIPP15RestaurantTableS3_EC2B7v160006IRS3_S3_LPv0EEEOT_OT0_, symObjAddr: 0x13E0, symBinAddr: 0x1000106B0, symSize: 0x34 }
  - { offsetInCU: 0x637F, offset: 0x5DCF1, size: 0x8, addend: 0x0, symName: __ZNSt3__118__unwrap_iter_implIPP15RestaurantTableLb1EE8__unwrapB7v160006ES3_, symObjAddr: 0x1414, symBinAddr: 0x1000106E4, symSize: 0x24 }
  - { offsetInCU: 0x63A2, offset: 0x5DD14, size: 0x8, addend: 0x0, symName: __ZNSt3__14pairIPP15RestaurantTableS3_EC1B7v160006IS3_S3_LPv0EEEOT_OT0_, symObjAddr: 0x1438, symBinAddr: 0x100010708, symSize: 0x3C }
  - { offsetInCU: 0x63FF, offset: 0x5DD71, size: 0x8, addend: 0x0, symName: __ZNSt3__14pairIPP15RestaurantTableS3_EC2B7v160006IS3_S3_LPv0EEEOT_OT0_, symObjAddr: 0x1474, symBinAddr: 0x100010744, symSize: 0x34 }
  - { offsetInCU: 0x645C, offset: 0x5DDCE, size: 0x8, addend: 0x0, symName: __ZNSt3__118__unwrap_iter_implIPP15RestaurantTableLb1EE8__rewrapB7v160006ES3_S3_, symObjAddr: 0x14A8, symBinAddr: 0x100010778, symSize: 0x50 }
  - { offsetInCU: 0x64A6, offset: 0x5DE18, size: 0x8, addend: 0x0, symName: __ZNSt3__16vectorIP15RestaurantTableNS_9allocatorIS2_EEE27__invalidate_iterators_pastB7v160006EPS2_, symObjAddr: 0x1B34, symBinAddr: 0x1000107C8, symSize: 0x14 }
  - { offsetInCU: 0x64DC, offset: 0x5DE4E, size: 0x8, addend: 0x0, symName: __ZNKSt3__16vectorIP15RestaurantTableNS_9allocatorIS2_EEE17__annotate_shrinkB7v160006Em, symObjAddr: 0x1B48, symBinAddr: 0x1000107DC, symSize: 0xB4 }
  - { offsetInCU: 0x6510, offset: 0x5DE82, size: 0x8, addend: 0x0, symName: __ZNSt3__16vectorIP15RestaurantTableNS_9allocatorIS2_EEE5clearB7v160006Ev, symObjAddr: 0x1BFC, symBinAddr: 0x100010890, symSize: 0x54 }
  - { offsetInCU: 0x2872, offset: 0x6074B, size: 0x8, addend: 0x0, symName: __ZNSt3__1eqB7v160006IcNS_11char_traitsIcEENS_9allocatorIcEEEEbRKNS_12basic_stringIT_T0_T1_EEPKS6_, symObjAddr: 0x224, symBinAddr: 0x100010B08, symSize: 0xAC }
  - { offsetInCU: 0x4AD0, offset: 0x629A9, size: 0x8, addend: 0x0, symName: __ZN13TableObserverC2EP15RestaurantTable, symObjAddr: 0x0, symBinAddr: 0x1000108E4, symSize: 0x64 }
  - { offsetInCU: 0x4B08, offset: 0x629E1, size: 0x8, addend: 0x0, symName: __ZN8ObserverC2Ev, symObjAddr: 0x64, symBinAddr: 0x100010948, symSize: 0x24 }
  - { offsetInCU: 0x4B32, offset: 0x62A0B, size: 0x8, addend: 0x0, symName: __ZN13TableObserverC1EP15RestaurantTable, symObjAddr: 0x88, symBinAddr: 0x10001096C, symSize: 0x34 }
  - { offsetInCU: 0x4B6A, offset: 0x62A43, size: 0x8, addend: 0x0, symName: __ZN13TableObserver6updateEv, symObjAddr: 0xBC, symBinAddr: 0x1000109A0, symSize: 0x168 }
  - { offsetInCU: 0x5903, offset: 0x68371, size: 0x8, addend: 0x0, symName: __ZN9TakeOrderC2EP6Waiter, symObjAddr: 0x0, symBinAddr: 0x100010BB4, symSize: 0x50 }
  - { offsetInCU: 0x593B, offset: 0x683A9, size: 0x8, addend: 0x0, symName: __ZN9TakeOrderC1EP6Waiter, symObjAddr: 0x74, symBinAddr: 0x100010C04, symSize: 0x34 }
  - { offsetInCU: 0x5973, offset: 0x683E1, size: 0x8, addend: 0x0, symName: __ZN9TakeOrder7executeEP15RestaurantTableP8MenuItem, symObjAddr: 0xA8, symBinAddr: 0x100010C38, symSize: 0x94 }
  - { offsetInCU: 0x5927, offset: 0x6DD5E, size: 0x8, addend: 0x0, symName: __ZN6WaiterC2ENSt3__112basic_stringIcNS0_11char_traitsIcEENS0_9allocatorIcEEEEiP14FloorColleague, symObjAddr: 0x0, symBinAddr: 0x100010CCC, symSize: 0x148 }
  - { offsetInCU: 0x599A, offset: 0x6DDD1, size: 0x8, addend: 0x0, symName: __ZN6Waiter14setWaiterStateEP11WaiterState, symObjAddr: 0x174, symBinAddr: 0x100010E14, symSize: 0x34 }
  - { offsetInCU: 0x5A28, offset: 0x6DE5F, size: 0x8, addend: 0x0, symName: __ZN20WaiterStateAvailableC1Ev, symObjAddr: 0x1A8, symBinAddr: 0x100010E48, symSize: 0x2C }
  - { offsetInCU: 0x5A52, offset: 0x6DE89, size: 0x8, addend: 0x0, symName: __ZN6WaiterC1ENSt3__112basic_stringIcNS0_11char_traitsIcEENS0_9allocatorIcEEEEiP14FloorColleague, symObjAddr: 0x1D4, symBinAddr: 0x100010E74, symSize: 0x44 }
  - { offsetInCU: 0x5AA7, offset: 0x6DEDE, size: 0x8, addend: 0x0, symName: __ZN6Waiter7addItemEP15RestaurantTableP8MenuItem, symObjAddr: 0x218, symBinAddr: 0x100010EB8, symSize: 0x84 }
  - { offsetInCU: 0x5AF8, offset: 0x6DF2F, size: 0x8, addend: 0x0, symName: __ZN6Waiter8getOrderEP15RestaurantTable, symObjAddr: 0x29C, symBinAddr: 0x100010F3C, symSize: 0x98 }
  - { offsetInCU: 0x5B4A, offset: 0x6DF81, size: 0x8, addend: 0x0, symName: __ZN6Waiter7cleanUpEP15RestaurantTable, symObjAddr: 0x37C, symBinAddr: 0x100010FD4, symSize: 0x28 }
  - { offsetInCU: 0x5B7E, offset: 0x6DFB5, size: 0x8, addend: 0x0, symName: __ZN6Waiter12confirmOrderEP15RestaurantTable, symObjAddr: 0x3A4, symBinAddr: 0x100010FFC, symSize: 0x9C }
  - { offsetInCU: 0x5BC1, offset: 0x6DFF8, size: 0x8, addend: 0x0, symName: __ZN6Waiter8addOrderEP15RestaurantTable, symObjAddr: 0x440, symBinAddr: 0x100011098, symSize: 0x9C }
  - { offsetInCU: 0x5C4F, offset: 0x6E086, size: 0x8, addend: 0x0, symName: __ZN22WaiterStateUnavailableC1Ev, symObjAddr: 0x4DC, symBinAddr: 0x100011134, symSize: 0x2C }
  - { offsetInCU: 0x5C79, offset: 0x6E0B0, size: 0x8, addend: 0x0, symName: __ZN6Waiter11isAvailableEv, symObjAddr: 0x508, symBinAddr: 0x100011160, symSize: 0x5C }
  - { offsetInCU: 0x5C9F, offset: 0x6E0D6, size: 0x8, addend: 0x0, symName: __ZNK6Waiter7getNameEv, symObjAddr: 0x564, symBinAddr: 0x1000111BC, symSize: 0x38 }
  - { offsetInCU: 0x5CC5, offset: 0x6E0FC, size: 0x8, addend: 0x0, symName: __ZN20WaiterStateAvailableC2Ev, symObjAddr: 0x59C, symBinAddr: 0x1000111F4, symSize: 0x44 }
  - { offsetInCU: 0x5CEF, offset: 0x6E126, size: 0x8, addend: 0x0, symName: __ZN11WaiterStateC2Ev, symObjAddr: 0x5E0, symBinAddr: 0x100011238, symSize: 0x24 }
  - { offsetInCU: 0x5D19, offset: 0x6E150, size: 0x8, addend: 0x0, symName: __ZN22WaiterStateUnavailableC2Ev, symObjAddr: 0x604, symBinAddr: 0x10001125C, symSize: 0x44 }
  - { offsetInCU: 0x368D, offset: 0x71816, size: 0x8, addend: 0x0, symName: __ZNSt3__17advanceB7v160006IPP6WaitermmvEEvRT_T0_, symObjAddr: 0xC04, symBinAddr: 0x10001174C, symSize: 0x50 }
  - { offsetInCU: 0x41D0, offset: 0x72359, size: 0x8, addend: 0x0, symName: __ZNSt3__18distanceB7v160006IPP6WaiterEENS_15iterator_traitsIT_E15difference_typeES5_S5_, symObjAddr: 0xBD8, symBinAddr: 0x100011720, symSize: 0x2C }
  - { offsetInCU: 0x4214, offset: 0x7239D, size: 0x8, addend: 0x0, symName: __ZNSt3__14copyB7v160006IPP6WaiterS3_EET0_T_S5_S4_, symObjAddr: 0xC54, symBinAddr: 0x10001179C, symSize: 0x40 }
  - { offsetInCU: 0x426F, offset: 0x723F8, size: 0x8, addend: 0x0, symName: __ZNSt3__110__distanceB7v160006IPP6WaiterEENS_15iterator_traitsIT_E15difference_typeES5_S5_NS_26random_access_iterator_tagE, symObjAddr: 0xF7C, symBinAddr: 0x1000118C8, symSize: 0x28 }
  - { offsetInCU: 0x42BC, offset: 0x72445, size: 0x8, addend: 0x0, symName: __ZNSt3__19__advanceB7v160006IPP6WaiterEEvRT_NS_15iterator_traitsIS4_E15difference_typeENS_26random_access_iterator_tagE, symObjAddr: 0xFB8, symBinAddr: 0x1000118F0, symSize: 0x28 }
  - { offsetInCU: 0x4305, offset: 0x7248E, size: 0x8, addend: 0x0, symName: __ZNSt3__16__copyB7v160006INS_17_ClassicAlgPolicyEPP6WaiterS4_S4_EENS_4pairIT0_T2_EES6_T1_S7_, symObjAddr: 0xFE0, symBinAddr: 0x100011918, symSize: 0x44 }
  - { offsetInCU: 0x4372, offset: 0x724FB, size: 0x8, addend: 0x0, symName: __ZNSt3__123__dispatch_copy_or_moveB7v160006INS_17_ClassicAlgPolicyENS_11__copy_loopIS1_EENS_14__copy_trivialEPP6WaiterS7_S7_EENS_4pairIT2_T4_EES9_T3_SA_, symObjAddr: 0x1024, symBinAddr: 0x10001195C, symSize: 0x44 }
  - { offsetInCU: 0x43F1, offset: 0x7257A, size: 0x8, addend: 0x0, symName: __ZNSt3__121__unwrap_and_dispatchB7v160006INS_10__overloadINS_11__copy_loopINS_17_ClassicAlgPolicyEEENS_14__copy_trivialEEEPP6WaiterS9_S9_Li0EEENS_4pairIT0_T2_EESB_T1_SC_, symObjAddr: 0x1068, symBinAddr: 0x1000119A0, symSize: 0xB4 }
  - { offsetInCU: 0x4482, offset: 0x7260B, size: 0x8, addend: 0x0, symName: __ZNSt3__114__unwrap_rangeB7v160006IPP6WaiterS3_EENS_4pairIT0_S5_EET_S7_, symObjAddr: 0x111C, symBinAddr: 0x100011A54, symSize: 0x60 }
  - { offsetInCU: 0x461A, offset: 0x727A3, size: 0x8, addend: 0x0, symName: __ZNSt3__113__unwrap_iterB7v160006IPP6WaiterNS_18__unwrap_iter_implIS3_Lb1EEELi0EEEDTclsrT0_8__unwrapclsr3stdE7declvalIT_EEEES7_, symObjAddr: 0x11C4, symBinAddr: 0x100011AFC, symSize: 0x24 }
  - { offsetInCU: 0x465F, offset: 0x727E8, size: 0x8, addend: 0x0, symName: __ZNSt3__19make_pairB7v160006IPP6WaiterS3_EENS_4pairINS_18__unwrap_ref_decayIT_E4typeENS5_IT0_E4typeEEEOS6_OS9_, symObjAddr: 0x11E8, symBinAddr: 0x100011B20, symSize: 0x38 }
  - { offsetInCU: 0x46AE, offset: 0x72837, size: 0x8, addend: 0x0, symName: __ZNSt3__114__rewrap_rangeB7v160006IPP6WaiterS3_EET_S4_T0_, symObjAddr: 0x1220, symBinAddr: 0x100011B58, symSize: 0x2C }
  - { offsetInCU: 0x46FB, offset: 0x72884, size: 0x8, addend: 0x0, symName: __ZNSt3__113__rewrap_iterB7v160006IPP6WaiterS3_NS_18__unwrap_iter_implIS3_Lb1EEEEET_S6_T0_, symObjAddr: 0x124C, symBinAddr: 0x100011B84, symSize: 0x3C }
  - { offsetInCU: 0x4751, offset: 0x728DA, size: 0x8, addend: 0x0, symName: __ZNSt3__119__copy_trivial_implB7v160006IP6WaiterS2_EENS_4pairIPT_PT0_EES5_S5_S7_, symObjAddr: 0x1288, symBinAddr: 0x100011BC0, symSize: 0x84 }
  - { offsetInCU: 0x47BB, offset: 0x72944, size: 0x8, addend: 0x0, symName: __ZNSt3__19make_pairB7v160006IRPP6WaiterS3_EENS_4pairINS_18__unwrap_ref_decayIT_E4typeENS6_IT0_E4typeEEEOS7_OSA_, symObjAddr: 0x130C, symBinAddr: 0x100011C44, symSize: 0x38 }
  - { offsetInCU: 0x6E87, offset: 0x75010, size: 0x8, addend: 0x0, symName: __ZN14WaiterIteratorC2ENSt3__16vectorIP6WaiterNS0_9allocatorIS3_EEEE, symObjAddr: 0x0, symBinAddr: 0x1000112A0, symSize: 0x98 }
  - { offsetInCU: 0x6EC0, offset: 0x75049, size: 0x8, addend: 0x0, symName: __ZNSt3__16vectorIP6WaiterNS_9allocatorIS2_EEEaSB7v160006ERKS5_, symObjAddr: 0xE8, symBinAddr: 0x100011338, symSize: 0x68 }
  - { offsetInCU: 0x6EF6, offset: 0x7507F, size: 0x8, addend: 0x0, symName: __ZN14WaiterIteratorC1ENSt3__16vectorIP6WaiterNS0_9allocatorIS3_EEEE, symObjAddr: 0x17C, symBinAddr: 0x1000113A0, symSize: 0x34 }
  - { offsetInCU: 0x6F2F, offset: 0x750B8, size: 0x8, addend: 0x0, symName: __ZN14WaiterIterator5firstEv, symObjAddr: 0x1B0, symBinAddr: 0x1000113D4, symSize: 0x30 }
  - { offsetInCU: 0x6F55, offset: 0x750DE, size: 0x8, addend: 0x0, symName: __ZNSt3__16vectorIP6WaiterNS_9allocatorIS2_EEEixB7v160006Em, symObjAddr: 0x1E0, symBinAddr: 0x100011404, symSize: 0x24 }
  - { offsetInCU: 0x6F8B, offset: 0x75114, size: 0x8, addend: 0x0, symName: __ZN14WaiterIterator11currentItemEv, symObjAddr: 0x204, symBinAddr: 0x100011428, symSize: 0x30 }
  - { offsetInCU: 0x6FB1, offset: 0x7513A, size: 0x8, addend: 0x0, symName: __ZN14WaiterIterator7hasNextEv, symObjAddr: 0x234, symBinAddr: 0x100011458, symSize: 0x74 }
  - { offsetInCU: 0x6FD7, offset: 0x75160, size: 0x8, addend: 0x0, symName: __ZN14WaiterIterator4nextEv, symObjAddr: 0x2D0, symBinAddr: 0x1000114CC, symSize: 0x6C }
  - { offsetInCU: 0x6FFD, offset: 0x75186, size: 0x8, addend: 0x0, symName: __ZN14WaiterIterator11isAvailableEP6Waiter, symObjAddr: 0x33C, symBinAddr: 0x100011538, symSize: 0x2C }
  - { offsetInCU: 0x7031, offset: 0x751BA, size: 0x8, addend: 0x0, symName: __ZNSt3__16vectorIP6WaiterNS_9allocatorIS2_EEE19__copy_assign_allocB7v160006ERKS5_, symObjAddr: 0xA1C, symBinAddr: 0x100011564, symSize: 0x2C }
  - { offsetInCU: 0x7065, offset: 0x751EE, size: 0x8, addend: 0x0, symName: __ZNSt3__16vectorIP6WaiterNS_9allocatorIS2_EEE6assignIPS2_Li0EEEvT_S8_, symObjAddr: 0xA48, symBinAddr: 0x100011590, symSize: 0x17C }
  - { offsetInCU: 0x7104, offset: 0x7528D, size: 0x8, addend: 0x0, symName: __ZNSt3__16vectorIP6WaiterNS_9allocatorIS2_EEE19__copy_assign_allocB7v160006ERKS5_NS_17integral_constantIbLb0EEE, symObjAddr: 0xBC4, symBinAddr: 0x10001170C, symSize: 0x14 }
  - { offsetInCU: 0x7141, offset: 0x752CA, size: 0x8, addend: 0x0, symName: __ZNSt3__16vectorIP6WaiterNS_9allocatorIS2_EEE17__destruct_at_endB7v160006EPS2_, symObjAddr: 0xD20, symBinAddr: 0x1000117DC, symSize: 0x60 }
  - { offsetInCU: 0x7184, offset: 0x7530D, size: 0x8, addend: 0x0, symName: __ZNSt3__16vectorIP6WaiterNS_9allocatorIS2_EEE13__vdeallocateEv, symObjAddr: 0xD80, symBinAddr: 0x10001183C, symSize: 0x8C }
  - { offsetInCU: 0x71CE, offset: 0x75357, size: 0x8, addend: 0x0, symName: __ZNKSt3__114__copy_trivialclB7v160006IP6WaiterS3_Li0EEENS_4pairIPT_PT0_EES6_S6_S8_, symObjAddr: 0x117C, symBinAddr: 0x100011AB4, symSize: 0x48 }
  - { offsetInCU: 0x723A, offset: 0x753C3, size: 0x8, addend: 0x0, symName: __ZNSt3__14pairIPP6WaiterS3_EC1B7v160006IRS3_S3_LPv0EEEOT_OT0_, symObjAddr: 0x1344, symBinAddr: 0x100011C7C, symSize: 0x3C }
  - { offsetInCU: 0x7297, offset: 0x75420, size: 0x8, addend: 0x0, symName: __ZNSt3__14pairIPP6WaiterS3_EC2B7v160006IRS3_S3_LPv0EEEOT_OT0_, symObjAddr: 0x1380, symBinAddr: 0x100011CB8, symSize: 0x34 }
  - { offsetInCU: 0x72F4, offset: 0x7547D, size: 0x8, addend: 0x0, symName: __ZNSt3__118__unwrap_iter_implIPP6WaiterLb1EE8__unwrapB7v160006ES3_, symObjAddr: 0x13B4, symBinAddr: 0x100011CEC, symSize: 0x24 }
  - { offsetInCU: 0x7317, offset: 0x754A0, size: 0x8, addend: 0x0, symName: __ZNSt3__14pairIPP6WaiterS3_EC1B7v160006IS3_S3_LPv0EEEOT_OT0_, symObjAddr: 0x13D8, symBinAddr: 0x100011D10, symSize: 0x3C }
  - { offsetInCU: 0x7374, offset: 0x754FD, size: 0x8, addend: 0x0, symName: __ZNSt3__14pairIPP6WaiterS3_EC2B7v160006IS3_S3_LPv0EEEOT_OT0_, symObjAddr: 0x1414, symBinAddr: 0x100011D4C, symSize: 0x34 }
  - { offsetInCU: 0x73D1, offset: 0x7555A, size: 0x8, addend: 0x0, symName: __ZNSt3__118__unwrap_iter_implIPP6WaiterLb1EE8__rewrapB7v160006ES3_S3_, symObjAddr: 0x1448, symBinAddr: 0x100011D80, symSize: 0x50 }
  - { offsetInCU: 0x741B, offset: 0x755A4, size: 0x8, addend: 0x0, symName: __ZNSt3__16vectorIP6WaiterNS_9allocatorIS2_EEE27__invalidate_iterators_pastB7v160006EPS2_, symObjAddr: 0x1AD4, symBinAddr: 0x100011DD0, symSize: 0x14 }
  - { offsetInCU: 0x7451, offset: 0x755DA, size: 0x8, addend: 0x0, symName: __ZNKSt3__16vectorIP6WaiterNS_9allocatorIS2_EEE17__annotate_shrinkB7v160006Em, symObjAddr: 0x1AE8, symBinAddr: 0x100011DE4, symSize: 0xB4 }
  - { offsetInCU: 0x7485, offset: 0x7560E, size: 0x8, addend: 0x0, symName: __ZNSt3__16vectorIP6WaiterNS_9allocatorIS2_EEE5clearB7v160006Ev, symObjAddr: 0x1B9C, symBinAddr: 0x100011E98, symSize: 0x54 }
  - { offsetInCU: 0x26, offset: 0x75690, size: 0x8, addend: 0x0, symName: __ZN11WaiterState9setWaiterEP6Waiter, symObjAddr: 0x0, symBinAddr: 0x100011EEC, symSize: 0x20 }
  - { offsetInCU: 0x28C6, offset: 0x77F30, size: 0x8, addend: 0x0, symName: __ZN11WaiterState9setWaiterEP6Waiter, symObjAddr: 0x0, symBinAddr: 0x100011EEC, symSize: 0x20 }
  - { offsetInCU: 0x28BC, offset: 0x7A825, size: 0x8, addend: 0x0, symName: __ZN20WaiterStateAvailable11isAvailableEv, symObjAddr: 0x0, symBinAddr: 0x100011F0C, symSize: 0x3C }
  - { offsetInCU: 0x28E2, offset: 0x7A84B, size: 0x8, addend: 0x0, symName: __ZN20WaiterStateAvailable13isUnavailableEv, symObjAddr: 0x108, symBinAddr: 0x100011F48, symSize: 0x74 }
  - { offsetInCU: 0x28BC, offset: 0x7D132, size: 0x8, addend: 0x0, symName: __ZN22WaiterStateUnavailable11isAvailableEv, symObjAddr: 0x0, symBinAddr: 0x100011FBC, symSize: 0x74 }
  - { offsetInCU: 0x28E2, offset: 0x7D158, size: 0x8, addend: 0x0, symName: __ZN22WaiterStateUnavailable13isUnavailableEv, symObjAddr: 0x16C, symBinAddr: 0x100012030, symSize: 0x3C }
  - { offsetInCU: 0x26, offset: 0x7D1A9, size: 0x8, addend: 0x0, symName: _main, symObjAddr: 0x0, symBinAddr: 0x10001206C, symSize: 0x68 }
  - { offsetInCU: 0x723E, offset: 0x843C1, size: 0x8, addend: 0x0, symName: _main, symObjAddr: 0x0, symBinAddr: 0x10001206C, symSize: 0x68 }
...
